(lp0
ccopy_reg
_reconstructor
p1
(csklearn.preprocessing.label
LabelEncoder
p2
c__builtin__
object
p3
Ntp4
Rp5
(dp6
S'classes_'
p7
cnumpy.core.multiarray
_reconstruct
p8
(cnumpy
ndarray
p9
(I0
tp10
S'b'
p11
tp12
Rp13
(I1
(I4
tp14
cnumpy
dtype
p15
(S'O8'
p16
I0
I1
tp17
Rp18
(I3
S'|'
p19
NNNI-1
I-1
I63
tp20
bI00
(lp21
Vauthor
p22
aVcontent
p23
aVpublish_date
p24
aVtitle
p25
atp26
bsS'_sklearn_version'
p27
S'0.18.1'
p28
sbag1
(csklearn.preprocessing.data
OneHotEncoder
p29
g3
Ntp30
Rp31
(dp32
S'n_values_'
p33
g8
(g9
(I0
tp34
g11
tp35
Rp36
(I1
(I1
tp37
g15
(S'i8'
p38
I0
I1
tp39
Rp40
(I3
S'<'
p41
NNNI-1
I-1
I0
tp42
bI00
S'\x04\x00\x00\x00\x00\x00\x00\x00'
p43
tp44
bsS'dtype'
p45
cnumpy
float64
p46
sS'categorical_features'
p47
S'all'
p48
sS'n_values'
p49
S'auto'
p50
sg27
g28
sS'sparse'
p51
I01
sS'handle_unknown'
p52
S'error'
p53
sS'feature_indices_'
p54
g8
(g9
(I0
tp55
g11
tp56
Rp57
(I1
(I2
tp58
g40
I00
S'\x00\x00\x00\x00\x00\x00\x00\x00\x04\x00\x00\x00\x00\x00\x00\x00'
p59
tp60
bsS'active_features_'
p61
g8
(g9
(I0
tp62
g11
tp63
Rp64
(I1
(I4
tp65
g40
I00
S'\x00\x00\x00\x00\x00\x00\x00\x00\x01\x00\x00\x00\x00\x00\x00\x00\x02\x00\x00\x00\x00\x00\x00\x00\x03\x00\x00\x00\x00\x00\x00\x00'
p66
tp67
bsba.