ccopy_reg
_reconstructor
p0
(ctensorflow.contrib.learn.python.learn.preprocessing.text
VocabularyProcessor
p1
c__builtin__
object
p2
Ntp3
Rp4
(dp5
S'vocabulary_'
p6
g0
(ctensorflow.contrib.learn.python.learn.preprocessing.categorical_vocabulary
CategoricalVocabulary
p7
g2
Ntp8
Rp9
(dp10
S'_freeze'
p11
I01
sS'_unknown_token'
p12
S'<UNK>'
p13
sS'_support_reverse'
p14
I01
sS'_freq'
p15
ccollections
defaultdict
p16
(c__builtin__
int
p17
tp18
Rp19
V\u516d\u4e00
p20
I3
sV\u8c08
p21
I47
sV\u7b2c\u4e8c
p22
I1
sV\u8fd8\u8981
p23
I4
sV\u516d\u4e09
p24
I4
sV\u548c\u4eb2
p25
I1
sV\u521d\u4e00
p26
I2
sV\u8bc4\u4ef7
p27
I1
sV\u5b81\u505a
p28
I1
sV\u4e0d\u95f9
p29
I4
sV\u6893\u66e6
p30
I1
sV\u5c0f\u8170
p31
I2
sV\u9020
p32
I1
sV\u5267\u672c
p33
I1
sV\u5624
p34
I2
sV\u8bb0
p35
I1
sVnuo
p36
I1
sV\u9b54\u6cd5
p37
I2
sV\u06af
p38
I24
sV20150630
p39
I4
sV\u74f6\u5b50
p40
I1
sVkOvV2
p41
I1
sV\u738b\u5b50
p42
I1
sV\u6d9f\u6f2a
p43
I1
sV\u51fa\u6765
p44
I3
sV\u6b64\u5916
p45
I1
sV\u6d1b\u514b
p46
I2
sV\u4e0d\u95ee
p47
I11
sV\u671f\u4e2d
p48
I1
sV\u9996\u6b4c
p49
I1
sV549801
p50
I1
sV\u78e8\u78e8
p51
I2
sV\u5662
p52
I1
sV\u6c99\u53d1
p53
I9
sV\u0437
p54
I1
sV\u8bdd
p55
I3
sV\u6211\u624b
p56
I1
sV\u8d5e
p57
I2
sV\u76f4\u8fbe
p58
I8
sV\u7ec6\u6c34\u957f\u6d41
p59
I1
sV\u6324\u4e0d\u8fdb
p60
I1
sV\u9664
p61
I1
sV\u5634\u5df4
p62
I1
sVkbar
p63
I1
sV\u516b\u6b21
p64
I1
sV\u65e0\u59d3
p65
I1
sV20150521
p66
I9
sV20150520
p67
I10
sV20150527
p68
I3
sV\u8111\u6b8b
p69
I4
sV298
p70
I1
sV\u597d\u4e86\u5427
p71
I1
sV\u95f9
p72
I2
sV297
p73
I4
sV20150529
p74
I14
sV\u76d6\u697c
p75
I1
sV\u56de\u6765
p76
I29
sV290
p77
I1
sV\u7834\u978b
p78
I1
sVpeduncle
p79
I15
sV\u665a\u4e0a
p80
I2
sV\u500b
p81
I1
sV\u8f8a
p82
I1
sV\u7b2c\u4e09
p83
I1
sV\u5fc3\u7231\u4eba
p84
I1
sV273
p85
I1
sV\u5b50\u51cc\u7ed9
p86
I1
sV\u4eba\u4f34
p87
I1
sVorz
p88
I2
sV\u6363\u86cb
p89
I1
sVRun
p90
I1
sV\u633a\u7f8e
p91
I1
sV\u538c\u5f03
p92
I1
sV\u8c0e\u8a00
p93
I3
sV\u5b9d\u513f
p94
I3
sV\u662f
p95
I190
sV\u7ae5\u8bdd
p96
I2
sV\u521a\u597d
p97
I2
sV\u8bb2
p98
I1
sV\u4e0a\u5929
p99
I1
sV\u5237
p100
I1
sV\u603b\u4e4b
p101
I1
sV\u58c1\u7eb8
p102
I2
sV\u56de\u7738
p103
I1
sV\u9648\u5012
p104
I1
sVnever
p105
I1
sV\u4e0d\u7528
p106
I11
sV\u5154\u8033
p107
I1
sV20150710
p108
I76
sV108
p109
I1
sV109
p110
I4
sV\u4f19\u98df
p111
I1
sVaid
p112
I1
sV\u6559
p113
I1
sV\uc7a5
p114
I2
sV100
p115
I1
sV107
p116
I1
sV\u4e5f
p117
I61
sV105
p118
I1
sV\u968f\u610f
p119
I1
sV3Dimage
p120
I9
sV\u66f4\u5f3a
p121
I1
sV\u770b\u4f86
p122
I2
sVforum
p123
I2
sV\u789f\u5b50
p124
I1
sVk
p125
I13
sV\uc2ec
p126
I2
sV26key
p127
I9
sV\u53d1\u9519
p128
I1
sV\u53ef\u60dc
p129
I3
sV\u4e0d\u9519
p130
I6
sV\u521a\u624d
p131
I1
sV\u4e03\u53cb
p132
I1
sV\u671f\u5f85
p133
I1
sV\u91cc\u9762
p134
I4
sV\u76ee\u524d
p135
I1
sV\u7f6a\u4eba
p136
I20
sV\u4e0d\u54ed
p137
I1
sV\u6821\u670d
p138
I2
sVq676671813
p139
I2
sV\u4e0a
p140
I14
sV\u6700\u540e
p141
I21
sV\u540e
p142
I5
sV\u5ba1\u6279
p143
I1
sV\u739b\u4e3d
p144
I1
sV\u5f04\u9519
p145
I1
sV\u541b\u738b
p146
I11
sV\u5c0f\u53ee\u5f53
p147
I1
sV\u5c0f\u5fc3\u7ffc\u7ffc
p148
I2
sV\u827e\u7279\u5965
p149
I2
sV\u6211\u522b
p150
I1
sV\u517c\u987e
p151
I1
sV\u6211\u59d0
p152
I5
sV\u7981\u6b62
p153
I2
sV\u6211\u8d77
p154
I1
sV\u8d8a\u5f3a
p155
I1
sV\u82ad
p156
I1
sV\u7f8a\u770b
p157
I1
sV\u4e0d\u4ecb\u610f
p158
I1
sV\u6d6e\u51fa
p159
I1
sV\u4f34
p160
I3
sV\u8bd5\u8bd5\u770b
p161
I1
sV\u5e72\u4ec0\u4e48
p162
I3
sV\u661f\u7ea7
p163
I3
sV\u540e\u6392
p164
I1
sV\u636e\u8bf4
p165
I2
sV\u9b3c
p166
I2
sV\u8f7b\u5df7
p167
I2
sV\u70b9\u4eae
p168
I3
sV\u53fd\u53fd
p169
I1
sV99
p170
I1
sV98
p171
I2
sV\u5feb\u4e50
p172
I3
sV\u4ee5\u4e3a
p173
I5
sV91
p174
I1
sV96
p175
I1
sVtitledoll
p176
I3
sV\u5c11
p177
I4
sV\u80f6\u5e03
p178
I1
sV\u6b63\u5f0f
p179
I2
sV\u4e0d\u5f03
p180
I1
sV\u8fd9\u662f
p181
I2
sV\u4ee5\u4e0a
p182
I1
sV\u597d\u68d2
p183
I2
sV\u9189
p184
I1
sV911542
p185
I1
sV\u4e3b\u8981
p186
I1
sV\u53f7
p187
I13
sV\u840c\u840c\u840c
p188
I6
sV\u80e1\u8bf4
p189
I2
sVnothumb
p190
I1
sV\u660e\u5929
p191
I4
sV\u8865\u836f
p192
I2
sV\u70df\u9152
p193
I21
sV\u5c0f\u53ef\u7231
p194
I6
sV14710
p195
I1
sV\u5ac1\u51fa\u53bb
p196
I1
sV2Fforum
p197
I9
sVscrollbars
p198
I6
sV\u672a\u6765
p199
I1
sV\u60f3\u8981
p200
I2
sV\u89c0\u8cde
p201
I1
sV\u8bdd\u53cb
p202
I4
sV\u9006\u590f
p203
I1
sV\u603b\u4f53
p204
I2
sV7641853
p205
I1
sV\u9664\u6389
p206
I1
sV\u5237\u5c4f
p207
I1
sV\u6027\u522b
p208
I1
sV\u53ef\u80fd
p209
I8
sV\u7b2c\u4e00\u6b21
p210
I2
sV\u4f17\u591a
p211
I1
sV\u4e0d\u65ad
p212
I2
sV\u4e00\u6bb5
p213
I2
sV\u5439
p214
I4
sV\u4f55\u7b49
p215
I1
sV\u4eba\u4e16
p216
I14
sV7513716
p217
I2
sV\u7cbe
p218
I2
sV2015076
p219
I21
sV2015077
p220
I4
sV2015074
p221
I10
sV2015075
p222
I5
sV2015072
p223
I12
sV2015073
p224
I31
sV2015071
p225
I8
sV\u52a0\u4e2a
p226
I1
sV\u524d
p227
I5
sV2015079
p228
I12
sV\u59d0
p229
I3
sV\u5854\u4e2d
p230
I1
sV\u51e0\u540d
p231
I1
sV\u7b80\u5355
p232
I3
sV549792
p233
I1
sV549790
p234
I1
sV\u62e5\u62b1
p235
I2
sV\u53d7\u4e0d\u4e86
p236
I1
sV\u4e0e\u5176
p237
I1
sV549795
p238
I1
sV\u5584\u826f
p239
I1
sV\u738b\u8005
p240
I4
sV\u4e0d\u540c
p241
I2
sV\u5bfc
p242
I1
sV\u7b2c\u4e8c\u53e5
p243
I1
sV\u6551\u8d4e
p244
I1
sV__
p245
I1
sV\u90a3\u5929
p246
I4
sV\u867d\u7136
p247
I7
sV\u51e1\u5965
p248
I1
sV\u5c0f\u590f
p249
I2
sV\u8bb0\u9519
p250
I3
sV\u518d
p251
I11
sV\u5567\u5567
p252
I2
sV\u540c\u4f34
p253
I1
sV\u518d\u89c1\u9762
p254
I1
sV\u6316
p255
I1
sV\u4e3a\u6c34
p256
I1
sV\u4f1e
p257
I1
sV\u5c31
p258
I88
sV\u6c34\u5e16
p259
I1
sV\u7cbe\u529b
p260
I2
sV\u5bf9\u4e0d\u8d77
p261
I3
sV\u5b89\u747e
p262
I1
sV\u8ba4\u8bc6
p263
I24
sV\u4e1c\u897f
p264
I5
sV\u5f53\u65f6
p265
I1
sV\u6536\u8d27
p266
I1
sV\u76ae\u80a4
p267
I1
sV\u6c5f\u5c71
p268
I7
sV\u59e8\u5988
p269
I23
sV\u5370\u8c61
p270
I41
sV\u79c1
p271
I1
sV\u4e00\u6837
p272
I5
sV\u655e\u4eae
p273
I1
sV400
p274
I1
sV\u770b\u7535\u89c6
p275
I1
sV\u540e\u6094
p276
I3
sV\u5173\u7cfb
p277
I7
sV\u73a9\u6e38\u620f
p278
I1
sV\u4e48
p279
I71
sV\u7d20\u8d28
p280
I2
sV\u53d8\u8fc1
p281
I3
sV\u76d4\u7532
p282
I1
sV\u6367\u573a
p283
I1
sV455
p284
I4
sV\u522b\u9a97
p285
I1
sV\u5b66\u672c\u840c
p286
I1
sV\u624d\u80fd
p287
I1
sV\u6211\u73fe
p288
I1
sV\u773c\u6cea
p289
I2
sV\u524d\u671f
p290
I1
sV\u4e0d\u5584\u8a00\u8f9e
p291
I1
sV\u96e3
p292
I1
sV\u7199\u96ea
p293
I1
sV\u5b66
p294
I1
sV\u81ed
p295
I4
sV\u7a81\u7136
p296
I4
sV\u53ef\u9876
p297
I1
sV\u7528\u60c5
p298
I1
sV\u8bc4\u5224
p299
I1
sV\u6a61\u80f6\u7403
p300
I4
sV\u5f7c\u65f6
p301
I11
sV\u65e7\u8776
p302
I2
sV\u5355\u673a
p303
I1
sV\u4e0b\u96e8
p304
I2
sV\u892a\u8272
p305
I81
sV\u7b11
p306
I41
sV\u7238\u7238
p307
I3
sV2023
p308
I1
sV\u56e0\u4e3a
p309
I14
sV\u751f\u5a03
p310
I1
sV\u7ecf\u5386
p311
I3
sV\u89c9\u5386
p312
I1
sV\u52a0
p313
I8
sV\u6ca1\u4ec0\u4e48
p314
I5
sV\u5e72\u6270
p315
I3
sV\u4eb2\u670b\u597d\u53cb
p316
I1
sV\u591c\u534a
p317
I1
sV7726631
p318
I1
sV7501335
p319
I1
sV\u663e\u5f97
p320
I2
sV20150516
p321
I78
sV20150517
p322
I9
sV20150514
p323
I7
sV20150515
p324
I31
sV\u8d35
p325
I1
sV20150513
p326
I29
sV20150510
p327
I2
sV20150511
p328
I2
sV\u683c\u5f0f
p329
I2
sVi3
p330
I1
sV\u6f14\u6280
p331
I1
sV20150519
p332
I7
sV\u5f00\u5fc3
p333
I11
sV\u61c2
p334
I1
sV\u5168\u90fd
p335
I4
sV\u54c7\u585e
p336
I1
sV3744
p337
I4
sV\u5176
p338
I3
sV\u597d\u60f9
p339
I1
sV\u8fa3
p340
I4
sV\u5b57\u513f
p341
I1
sV\u5168\u90e8
p342
I1
sV\u8bf4\u540d
p343
I1
sV\u53d8\u4f5c
p344
I2
sV\u5478
p345
I1
sV\u6495\u62a5
p346
I1
sV\u540d\u513f
p347
I2
sV\u6c5f
p348
I1
sV\u793c\u7269
p349
I2
sV\u5361
p350
I38
sV\u5565
p351
I25
sV\u90a3\u79cd
p352
I7
sV\u6ca1\u4eba\u6765
p353
I2
sV293
p354
I1
sV\u62d2\u7edd
p355
I2
sV\u964c\u751f
p356
I3
sV\u4e0a\u5b66
p357
I1
sV\u597d
p358
I67
sV\u6b22\u8fce
p359
I2
sV\u6c89
p360
I2
sV\u6211\u7a0e
p361
I1
sV\u9752\u5e74
p362
I2
sV2459
p363
I7
sV2664175669
p364
I1
sV\u53cc\u5360
p365
I1
sV\u6b7b\u53bb
p366
I1
sV\u738b
p367
I3
sV\u996e\u8fc7
p368
I1
sVTTtitle61
p369
I1
sV26type
p370
I9
sV\u9b45\u529b
p371
I3
sV\u6253\u542c
p372
I5
sV\u5e94\u4e3a
p373
I1
sV\u9050\u8fe9
p374
I2
sV\u76d8\u5b50
p375
I1
sV\u52a1
p376
I6
sV\u53d8\u8eab
p377
I7
sV\u7b2c\u4e00
p378
I8
sV\u5e05\u54e5
p379
I3
sVtop
p380
I6
sV\u82f1\u4fca\u6f47\u6d12
p381
I1
sV\u53cd\u6d17
p382
I1
sV2
p383
I132
sV\u8d34
p384
I37
sV\u51b7
p385
I1
sV\u72fc\u72c8
p386
I2
sV\u7167\u6837
p387
I1
sVB
p388
I2
sV\u9057\u5f03
p389
I1
sV\u53cb
p390
I1
sV\u7834\u5200\u6c99
p391
I1
sV\u795e\u53d7
p392
I2
sV\u5ad1
p393
I5
sV\u5b50
p394
I1
sV\u5927\u81e3
p395
I1
sV9623
p396
I3
sV\u81ea\u4ed8
p397
I1
sV\u52a0\u6cb9
p398
I6
sV\u4e0b\u534a\u751f
p399
I1
sV\u8ddf
p400
I18
sV\u56de\u5230
p401
I2
sV\u6709\u70b9
p402
I2
sV\u72c2\u5954
p403
I1
sV\u522b\u7ba1
p404
I1
sV\u54e5
p405
I2
sV\u59b9\u6709
p406
I1
sV7813590
p407
I1
sV\u8f9b\u9178
p408
I1
sVscener
p409
I5
sV\u62cd\u624b
p410
I2
sV\u5618\u5bd2\u95ee\u6696
p411
I1
sV\u516c\u4e3b
p412
I16
sV\u5f88\u4f1a
p413
I1
sV\u4ed4\u7ec6\u542c
p414
I7
sV\u5217
p415
I1
sV\u4e09
p416
I1
sV\u8d70\u8fc7
p417
I3
sV\u719f\u6089
p418
I4
sV\u0296
p419
I4
sV\u58f0\u5636\u529b\u7aed
p420
I1
sV\u773c\u775b
p421
I4
sV\u559d\u9189
p422
I1
sV\u65e7\u6668
p423
I13
sV\u538b\u6241
p424
I1
sV\u50a2
p425
I2
sV\u5425
p426
I1
sV\u5927
p427
I94
sVUNIVERSITY
p428
I76
sV-
p429
I803
sV\u6210\u719f
p430
I3
sV\u4e0d\u600e\u4e48
p431
I1
sV\u7ed8\u753b
p432
I1
sV\u810f\u8bdd
p433
I4
sV\u8db4
p434
I1
sV\u770b\u6cd5
p435
I1
sV\u5929\u8981
p436
I1
sV\u585e\u5b50
p437
I1
sV\u730e\u7269
p438
I1
sV\u8d76\u7d27
p439
I1
sV\u6eda\u56de\u53bb
p440
I1
sV\u6bb5\u65f6\u95f4
p441
I1
sV\u91cc
p442
I3
sV\u89c2\u770b
p443
I2
sV\u62ff\u56de\u53bb
p444
I1
sVaimgcount
p445
I27
sVahahah
p446
I1
sVplayer
p447
I1
sV\u753b\u4e2a
p448
I2
sVQQ
p449
I12
sV\u5982\u4f55
p450
I2
sV\u82cd\u82cd
p451
I1
sV\u7adf\u7136
p452
I4
sV5441
p453
I12
sVm
p454
I2
sV\u86ee
p455
I2
sVQA
p456
I1
sV\u7cbe\u534e
p457
I158
sVQI
p458
I1
sV\u6218\u8bb0
p459
I1
sV\u4e0d\u901a
p460
I2
sV1766
p461
I1
sV7513705
p462
I1
sV7513706
p463
I1
sV\u534e\u6668
p464
I1
sV\u8001\u6389\u7259
p465
I10
sV\u4e00\u4e0a
p466
I1
sV\u4e00\u4e0b
p467
I10
sV\u548b
p468
I2
sV\u6536\u8d77
p469
I1
sV\u629b\u5f03
p470
I1
sV549788
p471
I1
sV\u5893
p472
I1
sV\u4e25\u8083
p473
I1
sV\u6697
p474
I1
sV\u79d8\u5b9d
p475
I1
sV\u771f\u7684
p476
I8
sV\u65ad\u53e5
p477
I4
sV\u90a3
p478
I18
sV\u5e7c\u7a1a\u56ed
p479
I1
sV1540
p480
I1
sVallowscriptaccess
p481
I1
sV\u4e00\u4e2a
p482
I32
sVmenu
p483
I1
sV\u62bd\u70df
p484
I1
sV\u70b9\u8bc4
p485
I5
sV\u591a\u96e3\u8a18
p486
I1
sV\u6413\u8863\u677f
p487
I1
sV28077
p488
I8
sV\u5929\u4e0b
p489
I1
sV\u6bb5
p490
I1
sV\u5176\u4ed6
p491
I5
sV\u5965\u6bd4
p492
I13
sV\u533a
p493
I1
sV\u8f7b\u988c
p494
I6
sV\u6960\u4e03\u6960
p495
I2
sV\u764c
p496
I11
sV\u5c0f\u7cbe\u7075
p497
I1
sV\u6307\u6807
p498
I1
sV\u7f16\u8f91
p499
I14
sV\u88c5\u626e
p500
I5
sV\u7b5b\u9009
p501
I1
sV\u65e5\u5e38
p502
I1
sV\u6df7\u4e71
p503
I1
sV\u64b8
p504
I1
sVtitle7849
p505
I1
sV\u695e
p506
I1
sV\u62e5\u6709
p507
I3
sV\u5acc\u592a\u8001
p508
I1
sV\u5c3d\u7136
p509
I1
sVhello
p510
I2
sV\u653e\u4e0d\u4e0b
p511
I1
sV\u6a61\u76ae\u7b4b
p512
I1
sVKK
p513
I1
sV\u5e9f\u7269
p514
I6
sV413
p515
I1
sV\u53d1\u5149
p516
I1
sV\u7cfb
p517
I1
sVXIANG
p518
I1
sV\u7f6a\u8bc1
p519
I1
sV7688
p520
I7
sV\u8003
p521
I2
sV1621484079
p522
I1
sV\u4e07
p523
I77
sV\u6218\u6597\u529b
p524
I7
sV\u51e0\u5929
p525
I2
sV\u73b0\u5b9e
p526
I2
sV\u5b66\u6821
p527
I4
sV\u5f80\u4e8b
p528
I1
sV\u5b98\u7fa4
p529
I1
sV\u7434\u68cb\u4e66\u753b
p530
I1
sV\u60c5\u7eea
p531
I1
sV\u62b1\u6b49
p532
I2
sV\u5c0f\u65f6
p533
I2
sV\u70db\u5149
p534
I5
sV676671813
p535
I2
sV02
p536
I5
sV20150614
p537
I6
sV00
p538
I4
sV20150616
p539
I9
sV06
p540
I8
sV07
p541
I9
sV20150613
p542
I2
sVpostToQzone
p543
I8
sV\u5929
p544
I6
sV\u4e00\u8eab
p545
I1
sV08
p546
I8
sV09
p547
I12
sV20150619
p548
I1
sV20150618
p549
I1
sV\u6211\u4eec
p550
I56
sVmua
p551
I1
sV\u575a\u5f3a
p552
I2
sV\u4e00\u4eba
p553
I1
sV\u70b8
p554
I7
sV50YB
p555
I1
sV\u7f51\u4e0a
p556
I1
sV\u5e76\u672a
p557
I1
sV7596335
p558
I3
sV\u8d8a\u9ad8
p559
I1
sV\u89c1\u8fc7
p560
I1
sV\u4e45\u5c45
p561
I1
sV\u5f00\u59cb
p562
I11
sV\u5c0f\u65e5\u5b50
p563
I1
sV\u5176\u4e2d
p564
I1
sV\u7cbe\u7075
p565
I32
sV\u9019\u6a23
p566
I1
sV\u5fae\u535a
p567
I9
sVwmode
p568
I1
sV\u5192\u6ce1
p569
I1
sV7641834
p570
I1
sV549796
p571
I1
sV\u4e09\u516c\u4e3b
p572
I1
sV\u68a6\u6e90
p573
I2
sV\u65e9\u719f
p574
I2
sV\u7834\u574f
p575
I1
sV\u90fd
p576
I95
sV\u676d
p577
I38
sV7596198
p578
I1
sV\u4e00\u4ef6
p579
I1
sV\u503e\u57ce
p580
I1
sV\u5c31\u8ba9
p581
I1
sV\u8eab\u8fb9
p582
I7
sVcom
p583
I40
sV\u7a7f
p584
I2
sVand
p585
I1
sV\u6b6a\u6b6a
p586
I1
sV\u641c\u72d7
p587
I1
sV\u767d\u663c
p588
I1
sV\u611f\u5192
p589
I3
sVheight
p590
I7
sV102
p591
I1
sV\u6311\u6218
p592
I7
sV\u82f1\u6587
p593
I2
sV\u591a\u9875
p594
I1
sV\u5bc2\u5bde
p595
I1
sV\u6709\u65f6
p596
I2
sV\u95ee\u4f55
p597
I11
sV\u51fa\u8272
p598
I1
sV7501232
p599
I1
sV\u7d2f\u79ef
p600
I2
sV\u5520
p601
I1
sV\u5339\u914d
p602
I1
sV\u8fc7\u751f\u65e5
p603
I1
sV\u56de\u7738\u4e00\u7b11
p604
I1
sV\u534a\u5e74
p605
I12
sV\u5927\u624b\u5b50
p606
I1
sV\u672c
p607
I7
sVbeen
p608
I1
sV\u5b66\u9738\u79c0
p609
I1
sV\u5927\u8868\u54e5
p610
I1
sV\u758f\u8fdc
p611
I2
sV\u840c\u6bd4\u65e7
p612
I5
sV\u4e0d\u8981\u8138
p613
I1
sV\u70b9
p614
I5
sV\u9ebd
p615
I1
sV\u5bf9\u5e94
p616
I1
sV\u5a07
p617
I1
sV\u7834
p618
I2
sV\u9ec4\u660f
p619
I2
sV\u0642
p620
I59
sV\u4e5d\u6790
p621
I8
sV\u8fc7
p622
I33
sV\u75af\u75af\u766b\u766b
p623
I1
sV\u8eab\u4e0a
p624
I2
sV\u6587\u7ae0
p625
I3
sV\u56cd
p626
I1
sV\u559c\u6012\u54c0\u4e50
p627
I1
sV\u59d3
p628
I1
sV\u641e\u5b8c
p629
I1
sV169
p630
I1
sV\u5982\u9152
p631
I11
sV\u597d\u840c
p632
I1
sV\u9802
p633
I1
sV\u5168\u9760
p634
I1
sV7501238
p635
I3
sV162
p636
I1
sVappkey
p637
I24
sV\u5927\u5927
p638
I1
sV\u5c0f\u840c
p639
I1
sV\u8fd9\u822c
p640
I3
sV\u5565\u4e8b
p641
I1
sV\u7ecf\u8fc7
p642
I1
sV\u60f3\u8d77
p643
I2
sVn
p644
I2
sV\u5237\u7897
p645
I2
sV\u8d70
p646
I23
sV\u53cd\u6b63
p647
I2
sV\u5fc3\u6dfc
p648
I2
sV\u5de6\u4e0a\u89d2
p649
I1
sV\u95ef\u5173
p650
I1
sV\u523a\u9752
p651
I3
sV\u987e
p652
I20
sV\u540c\u5b66
p653
I7
sV\u6492\u82b1
p654
I1
sV\u4e0d\u706d
p655
I1
sV\u8d62\u522b
p656
I1
sV\u6253\u52ab
p657
I8
sV\u5455\u672c
p658
I1
sV\u805a\u96c6\u5730
p659
I1
sV\u81f3\u4e8e
p660
I1
sV\u9177\u7231
p661
I1
sV\u90a3\u9ebc
p662
I1
sVpics
p663
I51
sVid
p664
I9
sV\u6c38\u5782\u4e0d\u673d
p665
I1
sVtitlePromise
p666
I3
sV\u6cb3\u56fe
p667
I1
sV\u8f9c\u8d1f
p668
I2
sV\u859b\u4e4b\u8c26
p669
I1
sV\u83b1\u897f
p670
I1
sV\u4eb2
p671
I2
sV\u671f\u672b
p672
I1
sV\u8fdb\u6765
p673
I12
sV\u540e\u671f
p674
I1
sV\u5408\u7fa4
p675
I9
sV\u4eba\u4f1a\u52a0
p676
I1
sV\u6441
p677
I1
sV\u4ece\u672a
p678
I1
sV\u4e0d\u9020
p679
I1
sV\u8c22\u8c22
p680
I5
sV\u524d\u9762
p681
I4
sV\u4e0d\u73a9
p682
I1
sV\u6700\u70c8
p683
I1
sV\u56e2\u7ed3
p684
I1
sV\u540e\u6765
p685
I2
sV\u9519\u8fc7
p686
I1
sV\u30ce
p687
I3
sV\u81f3\u4eca
p688
I1
sV3D400x400
p689
I9
sV\u53d1\u70e7
p690
I1
sVY
p691
I3
sV\u4f17\u795e
p692
I14
sV\u5723\u5c71
p693
I14
sV\u4e5d
p694
I4
sV\u8fdc
p695
I1
sV\u4e0d\u9001
p696
I3
sV\u786c\u67aa
p697
I1
sV\u5927\u54e5
p698
I1
sV\u805a\u6563
p699
I1
sV\u75db\u5f7b
p700
I1
sV\u8bf4
p701
I153
sV\u53cc\u559c
p702
I2
sV\u5c14\u96c5
p703
I10
sV\u63a8\u8350
p704
I3
sV\u53d1\u50cf
p705
I1
sVleft
p706
I6
sV\u6781
p707
I1
sV\u767e\u5206\u4e4b\u516b\u5341
p708
I1
sV\u4ea6\u5a77
p709
I1
sV\u653e\u5230
p710
I1
sV\u7d00
p711
I1
sV\u540c
p712
I3
sV\u559c\u65b0\u538c\u65e7
p713
I1
sV\u7b2c\u4e8c\u540d
p714
I1
sV\u5951\u7ea6
p715
I1
sV\u624b\u673a
p716
I4
sVyes
p717
I7
sV\u56f4\u89c2
p718
I4
sV\u673a\u7532
p719
I1
sV\u5a5a\u793c
p720
I8
sV7641832
p721
I1
sV\u50bb\u5b50
p722
I1
sV\u767e\u5ea6
p723
I60
sV\u6b87
p724
I11
sV7641836
p725
I1
sV\u7ed3\u679c
p726
I4
sV\u592a
p727
I8
sV\u633d\u7559
p728
I2
sV\u65e7\u4e45
p729
I3
sV2Fsc
p730
I1
sV\u94bb\u725b\u89d2
p731
I1
sV\u0e30
p732
I15
sV\u603b\u88c1
p733
I29
sV\u4f60\u5011
p734
I1
sV\u4e0d\u53d1
p735
I3
sV\u516c\u544a
p736
I1
sV\u60c5\u573a
p737
I1
sV\u7238
p738
I2
sV\u4e0d\u53d8
p739
I1
sV\u6210\u540d
p740
I1
sV\u5fae\u51c9
p741
I1
sVtitle61
p742
I1
sV\u4f46
p743
I22
sV\u7535\u8111
p744
I3
sV\u9ad8\u8ddf\u978b
p745
I1
sV\u50cf
p746
I17
sV\u88c5\u4f5c
p747
I1
sV\u7f8e\u597d
p748
I5
sV\u8fc7\u89c1
p749
I1
sV\u6b27\u5df4
p750
I1
sV\u6539\u540d
p751
I3
sV\u7f8e\u5973
p752
I2
sV\u6478\u5934
p753
I1
sV\u5fc3\u4eea
p754
I1
sV\u59bb\u4e11
p755
I1
sV59
p756
I9
sV58
p757
I6
sV55
p758
I6
sV54
p759
I6
sV57
p760
I2
sV56
p761
I8
sV51
p762
I7
sV50
p763
I2
sV53
p764
I5
sV\u4f20\u7edf
p765
I1
sV\u4e70
p766
I4
sV\u7981\u6c34
p767
I1
sV\u6f14
p768
I2
sV\u5029\u83b9
p769
I1
sV\u53d1\u73b0
p770
I6
sV\u601c\u6211\u601c\u537f
p771
I3
sVright
p772
I9
sV\u6728\u9a6c
p773
I1
sV\u4f86
p774
I1
sV\u8d85\u8fc7
p775
I2
sVeasy
p776
I1
sV\u548c
p777
I53
sV\u8fd8\u4f1a
p778
I2
sV\u771f\u540d
p779
I3
sV\u6b7b\u4ea1
p780
I1
sV\u8bfe\u86ee
p781
I1
sV\u4f7f\u7528
p782
I84
sV52
p783
I3
sVencodeURI
p784
I21
sV\u738b\u6743
p785
I5
sV\u770b\u89c1
p786
I6
sV\u7206\u7834
p787
I1
sV\u8ffd\u9010
p788
I1
sV\u6ca1\u6709
p789
I24
sV3Df4698977110c8b3e
p790
I3
sVBoss
p791
I3
sV\u627e\u5230
p792
I2
sVHi
p793
I1
sV\u6076\u9b54
p794
I1
sV\u63a5\u7eb3
p795
I1
sV\u91ce\u5b50
p796
I42
sV28723
p797
I21
sV\u6253\u51fb
p798
I1
sV7596294
p799
I3
sV\u5404\u79cd
p800
I2
sV\u4e13\u4e1a
p801
I1
sV7501260
p802
I2
sV\u6211\u5e38
p803
I2
sV7501262
p804
I2
sV\u7a9d\u56ca\u5e9f
p805
I2
sV\u504f
p806
I4
sV\u592a\u9633
p807
I2
sV\u5c31\u8981
p808
I1
sV\u57f9\u517b
p809
I2
sV\u4e00\u6b21
p810
I1
sV\u8ba4\u5f97
p811
I11
sV\u53eb\u9192
p812
I1
sVpost
p813
I85
sV\u59d0\u59d0
p814
I1
sV\u6d6a\u8361
p815
I1
sV\u51d1\u70ed\u95f9
p816
I3
sV\u56e0
p817
I6
sV\u6bd5\u7adf
p818
I2
sV\u7ed3\u675f
p819
I1
sV\u65b0\u53f7
p820
I2
sV\u6df1\u6d77
p821
I4
sV\u8282\u4fed
p822
I1
sVo
p823
I12
sV\u5927\u7ed3\u5c40
p824
I1
sV\u89c2\u4f17
p825
I1
sV\u8138\u5b50
p826
I2
sV\u51fa
p827
I5
sV\u5a31\u4e50
p828
I1
sV\u56fe\u662f
p829
I1
sV\u4f55\u96be
p830
I14
sV7501312
p831
I2
sV\u7d2b\u9ec4
p832
I4
sV\u4f5c\u4e3a
p833
I1
sV\u578b
p834
I7
sV\u5f03\u4e4b\u4e8e
p835
I1
sV\u72d7\u53cb
p836
I1
sVwww
p837
I1
sV\u5927\u65b9
p838
I1
sV\u8d25\u843d
p839
I2
sV\u8ddf\u98ce
p840
I16
sV\u600e\u4e48\u6837
p841
I2
sV\u65f6\u4ee3
p842
I2
sV\u67e5\u770b
p843
I1
sV\u6b63\u597d
p844
I1
sV\u4f9b
p845
I1
sV\u770b\u4e0d\u61c2
p846
I1
sV\u91d1\u5e01
p847
I6
sV\u5422
p848
I6
sV\u65e7\u82d2
p849
I1
sV\u8fce\u98ce
p850
I2
sV\u5e26
p851
I5
sV\u7761\u89c9
p852
I1
sV\u524d\u6bb5\u65f6\u95f4
p853
I1
sVwidth
p854
I7
sV\u6211\u5fc3
p855
I1
sV\u6cd5\u5e08
p856
I1
sV\u55b7
p857
I1
sV\u5317\u8fb0
p858
I4
sV\u9644\u4ef6
p859
I37
sV7596459
p860
I1
sV\u56de
p861
I2
sV\u5e94\u8981
p862
I1
sV\u60c5
p863
I1
sV\u5f97\u6c42
p864
I1
sV\u611f\u53d7
p865
I2
sV\u5931\u671b
p866
I79
sV6
p867
I76
sV\u8bed\u8a00\u8868\u8fbe
p868
I1
sV\u91cf
p869
I2
sV\u8bf4\u8bf4\u8bdd
p870
I1
sV\u9ed1
p871
I30
sV\u5f85\u541b
p872
I4
sV\u53cc\u773c
p873
I4
sVZ
p874
I1
sV\u5e73\u53cd\u662d\u96ea
p875
I3
sV\u8282\u5047\u65e5
p876
I1
sV\u9760
p877
I1
sV3D83971687211b6e16
p878
I3
sV\u5462
p879
I24
sV\u773c\u89d2
p880
I1
sV\u5929\u98de\u7c89
p881
I2
sV121
p882
I1
sV\u6d17\u8863\u670d
p883
I2
sV\u6768\u5b50
p884
I1
sV\u786a
p885
I1
sV\u662f\u4e0d\u662f
p886
I2
sV\u4e24\u7ffc
p887
I1
sV\u5395\u6240
p888
I2
sV\u59bb
p889
I1
sVallowScriptAccess
p890
I1
sV\u8499\u7cfb
p891
I1
sV\u6765\u529e
p892
I1
sV\u4e00\u8d77
p893
I11
sV\u4f1a\u5458
p894
I1
sV\u751a\u81f3
p895
I1
sV\u4e07\u4e08\u6df1\u6e0a
p896
I1
sV\u6280\u80fd
p897
I7
sV\u6587\u5b57
p898
I1
sV155
p899
I2
sV\u6bcf\u4e2a
p900
I1
sV\u8131\u4fd7
p901
I1
sV\u4e86
p902
I348
sV\u770b
p903
I97
sV\u540d
p904
I1
sV\u5f90
p905
I3
sVdaladaladadala
p906
I15
sV\u7ecf\u8d39
p907
I8
sV\u6696
p908
I7
sV\u5730\u4e0a
p909
I1
sV\u4e94\u5927
p910
I2
sV\ufeee
p911
I125
sVidtitle
p912
I6
sV\u4e3e\u62a5
p913
I79
sV\u843d\u4fd7
p914
I1
sV947398
p915
I1
sV\u6211\u9519
p916
I1
sVno
p917
I30
sVnb
p918
I1
sV\u9e92\u9e9f
p919
I1
sV\u513f\u5b50
p920
I1
sVcheckmgcmn
p921
I85
sV7959558
p922
I2
sV\u5e8a\u4e0a
p923
I1
sV\u901a\u987a
p924
I1
sV\u7239
p925
I1
sV\u9f3b
p926
I2
sV\u70ba
p927
I2
sV\u5c5e\u6027
p928
I4
sV\u0641
p929
I1
sV22735
p930
I2
sV8585title
p931
I3
sVE
p932
I1
sVRomantic
p933
I1
sV\u56e0\u6b64
p934
I1
sV\u82cf\u6960
p935
I1
sV\u8ba4\u4e3a
p936
I2
sV\u4e0d\u5230
p937
I6
sV\u7576\u7136
p938
I1
sV\u4e0b\u53bb
p939
I1
sVsrc
p940
I1
sV\u590f\u77b3
p941
I9
sV\u4f24\u5bb3
p942
I1
sV\u540e\u540d
p943
I1
sV\u8bc4\u65ad
p944
I14
sV\u5fc3\u8f6f
p945
I1
sV\u6539\u5584
p946
I1
sV\u616f
p947
I1
sV\u53f6\u5b50
p948
I1
sV\u5357\u5eb7
p949
I3
sV\u524d\u540d
p950
I1
sV\u4f18\u70b9
p951
I1
sV\u957f
p952
I2
sV\u8d85\u4eba
p953
I5
sV\u7537\u751f
p954
I1
sV\u63a8\u5f00
p955
I1
sV20150429
p956
I15
sV\u5bcc\u6bd4
p957
I1
sV\u8981
p958
I23
sV\u7709\u6bdb
p959
I2
sV\u65e0\u804a
p960
I5
sV\u770b\u6765
p961
I1
sV\u75c5\u5a07
p962
I6
sVV
p963
I1
sVaimgfid
p964
I30
sV\u4f55\u59a8
p965
I1
sV\u516b\u4e94
p966
I4
sV\u9001\u7ed9
p967
I2
sV\u4f1a
p968
I27
sV\u83ab\u540d
p969
I2
sVmenubar
p970
I6
sV\u6094\u609f
p971
I1
sV\u6e10\u6e10
p972
I3
sV1949
p973
I1
sV\u504f\u4e0a
p974
I1
sV\u548b\u5566
p975
I1
sV\u5929\u6210
p976
I1
sV\u88ab
p977
I13
sV\u4e00\u822c
p978
I5
sV\u9f50\u5fc3\u534f\u529b
p979
I1
sV\u6d3b\u8dc3
p980
I3
sV0
p981
I162
sV\u4e70\u6765
p982
I1
sV\u4fae\u8fb1
p983
I1
sV\u73b0\u5728
p984
I16
sV\u7f3a
p985
I1
sV\u6c92\u6709
p986
I1
sV\u53ef\u7231
p987
I9
sV\u89c1
p988
I3
sV\u90e1
p989
I22
sV\u6c14\u6b7b
p990
I1
sV\u82b1\u5343\u9aa8
p991
I1
sV\u5fc3\u60c5
p992
I2
sV\u51d1
p993
I1
sV5460
p994
I6
sV\u9ed8\u9ed8
p995
I1
sV2title
p996
I8
sV\u4e0d\u592a\u5bf9
p997
I1
sV\u6ca1\u89c1
p998
I2
sVhhhtitle
p999
I11
sV\u633d\u7b11
p1000
I31
sV\u770b\u6e05
p1001
I1
sV\u966a\u4f60\u8d70
p1002
I1
sV\u5206\u914d
p1003
I2
sV\u53d1\u751f
p1004
I3
sV\u5bb6\u91cc
p1005
I2
sVtitle8751
p1006
I3
sV\u6392\u884c\u699c
p1007
I1
sV\u610f\u601d
p1008
I3
sV\u5929\u624d
p1009
I6
sV\u8001\u4eba
p1010
I1
sV\u76d1\u72f1
p1011
I2
sV\u8bb0\u5f97
p1012
I28
sV\u6c34\u5317
p1013
I1
sV\u5fc3\u6001
p1014
I1
sV\u7b2c\u4e00\u5370\u8c61
p1015
I1
sV\u52c7\u8005
p1016
I2
sV\u98de\u673a
p1017
I1
sV\u9694
p1018
I1
sV\u5f88\u840c
p1019
I3
sV\u9e21\u51bb
p1020
I1
sV\u661f
p1021
I5
sV\u8ddf\u7740
p1022
I1
sV\u5218\u70e8
p1023
I2
sV\u89aa\u7ffb\u8b6f
p1024
I1
sV\u6c38\u4e0d
p1025
I1
sV\u7529
p1026
I2
sV\u74a8
p1027
I16
sV\u8df3
p1028
I1
sV\u6e2f
p1029
I1
sV\u540d\u5b57
p1030
I27
sV520
p1031
I4
sV7502259
p1032
I1
sV\u5361\u62c9
p1033
I1
sV\u5fae\u5f31
p1034
I1
sV\u9014\u5f84
p1035
I2
sV\u963f
p1036
I23
sV\u767e\u7530
p1037
I1
sV\u4eba\u6765
p1038
I1
sV\u51e0\u5341\u4e2a
p1039
I1
sV\u80e1\u7f16
p1040
I1
sV\u7eda\u70c2
p1041
I1
sV\u7231\u8981
p1042
I7
sV\u6211\u9020
p1043
I1
sV\u60a0\u7136
p1044
I2
sV\u79d2
p1045
I3
sV\u5bb6\u5177
p1046
I1
sV\u5e72\u561b
p1047
I3
sV\u603b\u662f
p1048
I2
sV\u591a\u5c11
p1049
I8
sVtoolbar
p1050
I6
sV\u56de\u8fc7
p1051
I2
sV\u8bb2\u7a76
p1052
I2
sV\u4eba\u597d
p1053
I1
sV\u60f3\u60f3
p1054
I1
sV\u7236\u6bcd
p1055
I1
sV\u6c34\u5370
p1056
I1
sV\u5403\u70b9
p1057
I1
sV2103692026
p1058
I1
sV\u66f4
p1059
I3
sV\u7a77
p1060
I1
sV\u4f3c\u4e4e
p1061
I1
sV\u72fc
p1062
I1
sV\u9648\u613f\u7476
p1063
I7
sV\u8fd9\u4e48
p1064
I7
sV\u64a9\u4eba
p1065
I4
sVlove
p1066
I1
sV\u91cd\u62f3
p1067
I1
sV\u516d\u6708
p1068
I1
sV\u5fc5\u8d1f
p1069
I1
sVqzone
p1070
I16
sV\u8bb2\u5b8c
p1071
I1
sV\u4e8c\u59b9
p1072
I1
sV\u607b\u9690
p1073
I2
sV\u5b89\u4e03\u662f
p1074
I1
sV\u4ea4\u53cb
p1075
I2
sV\u54a9
p1076
I3
sV\u7528
p1077
I15
sV\u6ef4\u6ef4
p1078
I2
sVdiscuz
p1079
I18
sV\u4e00\u5927\u5806
p1080
I1
sV\u62e8\u6253
p1081
I1
sV\u56de\u4e2a
p1082
I1
sV\u5341\u51e0\u79d2
p1083
I3
sV\u5eb8\u4fd7
p1084
I2
sV\u795e\u79d8
p1085
I2
sV7501320
p1086
I3
sVF
p1087
I1
sV7501329
p1088
I2
sV\u82cf\u7f8e\u4eba
p1089
I2
sV\u600e\u77e5
p1090
I2
sV\u610f\u613f
p1091
I1
sV3D549788
p1092
I3
sV\u4e00\u5207\u90fd\u662f
p1093
I1
sV\u7c97\u6765
p1094
I1
sV\u8fd9\u4e2a
p1095
I26
sV\u53d1\u5c55
p1096
I1
sV\u6211\u6960
p1097
I1
sV\u966a
p1098
I3
sV4178
p1099
I2
sV\u661f\u671f\u4e09
p1100
I1
sV7501255
p1101
I3
sV7501254
p1102
I2
sV7501257
p1103
I3
sV\u5f88\u65e9
p1104
I2
sV7501251
p1105
I2
sV\uc774
p1106
I10
sV\u6c38\u8fdc
p1107
I3
sV\u9876
p1108
I1
sV\u6765\u6765\u6765
p1109
I1
sV\u554a\u54c8
p1110
I1
sV7501259
p1111
I1
sV\u4e8b\u5b9e
p1112
I1
sV\u5c31\u662f
p1113
I28
sV\u5403\u51c9
p1114
I1
sV\u6307
p1115
I1
sV1title
p1116
I1
sV\u6211\u517b
p1117
I1
sV\u4ece\u6b64
p1118
I8
sV\u5b8c
p1119
I4
sV\u56de\u4e8b
p1120
I1
sV\u5047\u5982
p1121
I1
sV\u94bb\u725b\u89d2\u5c16
p1122
I1
sV\u839c
p1123
I16
sV233
p1124
I1
sV\u56de\u8001\u5bb6
p1125
I1
sV\u7fa4
p1126
I1
sVkHHCw
p1127
I1
sV2222
p1128
I1
sV\u5a73
p1129
I1
sV\u56f0\u517d
p1130
I1
sV1
p1131
I85
sValway
p1132
I1
sV\u7ea2\u7cd6
p1133
I1
sV\u4e0d\u5c51
p1134
I1
sV\u5185\u5bb9
p1135
I2
sV20150419
p1136
I9
sV146
p1137
I20
sV\u9500\u58f0\u533f\u8ff9
p1138
I1
sV144
p1139
I1
sV\u91d1\u66f2
p1140
I1
sV\u4e45
p1141
I2
sV\u5750\u7b49
p1142
I1
sV\u767e\u5e74\u597d\u5408
p1143
I1
sV\u76f8\u7f20
p1144
I14
sV\u526a\u5f71
p1145
I1
sV\u8fd9\u4e9b
p1146
I4
sV\u5f04\u65ad
p1147
I1
sV4501
p1148
I4
sVsns
p1149
I16
sV\u5e74\u9f84
p1150
I2
sV\u6eda
p1151
I15
sV\u6709\u6240\u4e0d\u540c
p1152
I1
sV\u731b\u864e
p1153
I1
sV\u795e\u5947
p1154
I1
sV\u70e6
p1155
I1
sV\u957f\u8857
p1156
I5
sV\u55e8
p1157
I6
sV\u79cd\u65cf
p1158
I1
sVq
p1159
I3
sV\u81ea\u62cd
p1160
I3
sV\u8fd9\u4eba
p1161
I1
sV\u4e0d\u5c11
p1162
I1
sV\u7c21\u9ad4
p1163
I1
sV\u706b\u8f66
p1164
I1
sV\u5f53\u8fc7
p1165
I2
sV\u542c\u542c
p1166
I4
sV\u80fd\u624b
p1167
I1
sV\u62b1
p1168
I1
sV\u8d85
p1169
I11
sV\u63d0\u8d77
p1170
I1
sV\u6700
p1171
I13
sV\u5b9d\u5b9d
p1172
I1
sV\u79ef\u5206
p1173
I386
sV\u5f85\u4f1a
p1174
I2
sV\u8bf7\u522b
p1175
I2
sV7501316
p1176
I2
sV\u5206\u949f
p1177
I1
sV\u597d\u51e0\u5206\u949f
p1178
I1
sV\u610f\u89c1
p1179
I1
sV\u7ee7\u7eed
p1180
I8
sV\u5357\u8352
p1181
I2
sV\u75f4\u72c2
p1182
I1
sV\u7b97\u9519
p1183
I1
sVRT
p1184
I1
sV\u5973\u4eba
p1185
I2
sV\u9752\u9752
p1186
I1
sV\u4e0a\u53bb
p1187
I1
sV\u8981\u706b
p1188
I1
sV\u529b\u6c14
p1189
I3
sV\u5c3c\u739b
p1190
I1
sVwindow
p1191
I20
sV\u4f30\u8ba1
p1192
I2
sV\u770b\u70ed\u95f9
p1193
I1
sVtitleelaborate
p1194
I1
sV1W8
p1195
I1
sV\u54b1\u4fe9
p1196
I2
sV20150524
p1197
I3
sV\u903c
p1198
I10
sV\u4f5c\u7528
p1199
I1
sV\u6bc1
p1200
I6
sV\u542c\u8fc7
p1201
I1
sV\u5f3a\u8005
p1202
I1
sV\u5317\u6c90\u513f
p1203
I5
sV\u51d1\u6574
p1204
I1
sV\u51b7\u6f20
p1205
I1
sV\u90a3\u4e48
p1206
I4
sV\u987e\u61ff
p1207
I1
sV\u53d1
p1208
I5
sV\u6211\u52a0
p1209
I3
sV7481718
p1210
I3
sVEND
p1211
I1
sV\u5454
p1212
I1
sV\u4e92\u6362
p1213
I1
sV\u8fd9
p1214
I18
sV\u8be5
p1215
I90
sV\u62db
p1216
I5
sV\u67d0\u5929
p1217
I1
sV\u5148\u53bb
p1218
I1
sV\u5f20\u5f00
p1219
I4
sV\u6bd2\u820c\u6709
p1220
I2
sV\u5bf9\u5cb8
p1221
I1
sV\u6309
p1222
I1
sV\u4e0d\u5982
p1223
I3
sV\u73a9\u6cd5
p1224
I3
sV\u6cef
p1225
I11
sV\u6211\u529e
p1226
I1
sV\u4e0a\u53e4
p1227
I1
sV\u5e73\u51e1
p1228
I2
sV\u5176\u6b21
p1229
I1
sV\u4f1f\u5927
p1230
I2
sV\u8fd9\u8d34
p1231
I1
sV\u6960\u4e5d
p1232
I2
sVem
p1233
I2
sV\u4e03
p1234
I1
sV\u7afa\u96e8
p1235
I22
sV\u5f0f\u5fae
p1236
I3
sV\u6709
p1237
I57
sV\u6700\u7f8e
p1238
I1
sV\u73a9\u6c34
p1239
I1
sV\u5c0f
p1240
I56
sV\u7f8e
p1241
I3
sV\u4efb\u52a1
p1242
I1
sV\u9192
p1243
I1
sV\u4f19
p1244
I2
sV\u75d5\u8ff9
p1245
I1
sV\u7a9d\u840c\u840c
p1246
I80
sV\u8fdb\u884c
p1247
I2
sV\u7591\u60d1
p1248
I1
sV796
p1249
I7
sV9386
p1250
I1
sVhhhh
p1251
I2
sV\u8fc7\u6765
p1252
I1
sV7641811
p1253
I1
sV7641816
p1254
I1
sV\u7238\u5a07
p1255
I1
sV7641815
p1256
I1
sV\u4fbf\u662f
p1257
I3
sV\u8ba1\u5212
p1258
I10
sV\u6709\u996d
p1259
I1
sV549800
p1260
I1
sV\u5bb6
p1261
I5
sV\u591a\u5e74
p1262
I1
sV\u7528\u5fc3
p1263
I1
sV\u9752\u57ce
p1264
I1
sV2Fup
p1265
I1
sV\u5413\u4eba
p1266
I1
sV\u5fc3\u6249
p1267
I1
sV\u6d45
p1268
I2
sV\u559d\u9152
p1269
I2
sV\u6821\u56ed
p1270
I1
sV2F8
p1271
I9
sV\u8bdd\u9898
p1272
I3
sV\u552f\u4e00
p1273
I2
sV\u52a8\u6f2b
p1274
I1
sV\u6708\u6cfd\u68a6\u6eaa\u7075
p1275
I6
sV\u8857
p1276
I1
sV\u816e\u817a\u708e
p1277
I2
sV\u6b64\u53f7
p1278
I1
sV\u625b
p1279
I1
sV\u54ce
p1280
I6
sV\u60dc
p1281
I11
sV\u4e0d\u7f3a
p1282
I1
sV\u7ec8\u70b9
p1283
I1
sV\u5e2e\u5e2e
p1284
I2
sV2015059
p1285
I2
sV\u53e6
p1286
I1
sV\u4e00\u4e0b\u4e0b
p1287
I1
sV\u6211\u521a
p1288
I2
sV\u90aa\u6790
p1289
I1
sVPromise
p1290
I2
sV\u5b89\u6170
p1291
I3
sV\u8bc4\u5206
p1292
I1
sV\u4f60\u7cd9
p1293
I1
sV\u5bb6\u52a1
p1294
I3
sV\u8bed\u6587
p1295
I3
sV\u8054\u7cfb
p1296
I4
sV1W
p1297
I1
sV7641569
p1298
I1
sV\u6708
p1299
I7
sV7641565
p1300
I1
sV\u697c\u7a7a
p1301
I1
sV\u4e11\u5c0f\u9e2d
p1302
I1
sV\u5c0f\u4f19\u5b50
p1303
I1
sV\u5988\u5988
p1304
I3
sV\u5012
p1305
I2
sV\u597d\u7fa1\u6155
p1306
I1
sV\u5514
p1307
I24
sV\u5355\u8eab
p1308
I1
sV\u7696\u5357
p1309
I1
sVopen
p1310
I20
sVsize
p1311
I2
sVPVP
p1312
I4
sV\u54ea\u79cd
p1313
I2
sV\u4e4b\u4e00
p1314
I1
sV3D1
p1315
I1
sV\u5ab3\u5987\u513f
p1316
I3
sV\u53d1\u5e16
p1317
I2
sV\u671f\u4e2d\u8003\u8bd5
p1318
I1
sV\u5728
p1319
I67
sVyin
p1320
I1
sV549797
p1321
I1
sV\u82b1
p1322
I4
sV\u53d1\u5e03
p1323
I1
sV\u8dd1\u5802
p1324
I2
sV\u5927\u6982
p1325
I1
sV\u65e0\u529b
p1326
I1
sV\u53bb
p1327
I19
sV\u53e5\u5b50
p1328
I5
sV\u8ba8\u8bba
p1329
I2
sV\u50b2\u5a07\u59b9
p1330
I3
sV\u65e7\u4eba
p1331
I2
sV\u6c90\u7b71\u4e0d
p1332
I1
sV\u82b1\u8482
p1333
I3
sV\u7e41\u9ad4
p1334
I2
sV\u6797\u6f88
p1335
I32
sV11
p1336
I18
sV10
p1337
I44
sV13
p1338
I46
sV12
p1339
I64
sV15
p1340
I36
sV14
p1341
I26
sV17
p1342
I83
sV16
p1343
I51
sV19
p1344
I55
sV18
p1345
I38
sV\u9b54\u653b
p1346
I2
sV\u6211\u68a6\u5b50
p1347
I3
sV\u8def
p1348
I2
sV\u5c3f\u5e8a
p1349
I1
sV\u67aa\u6307
p1350
I1
sV\u30fd
p1351
I1
sV\u7d2f\u574f
p1352
I1
sV\u827e\u7279
p1353
I3
sV\u6700\u521d
p1354
I1
sV\u7206\u7206
p1355
I1
sV\u5c81\u6708
p1356
I2
sV\u7406\u4f1a
p1357
I1
sV\u6ca1\u5934\u8111
p1358
I9
sV\u4e16\u754c
p1359
I16
sV7501333
p1360
I2
sV\u6d45\u901d
p1361
I5
sV\u6211\u6765\u7cd9
p1362
I4
sV\u65e0\u7231
p1363
I1
sV\u7f3a\u70b9
p1364
I1
sV\u5c0f\u5356\u90e8
p1365
I2
sV\u4e00\u4e07\u904d
p1366
I1
sV\u741b
p1367
I4
sV\u9aa8\u9abc
p1368
I14
sV\u5b87
p1369
I1
sV\u8f49\u63db\u5668
p1370
I1
sV\u7b2c\u56db
p1371
I4
sV\u4e0d\u88c5
p1372
I1
sV7501242
p1373
I1
sV7501243
p1374
I2
sV7501240
p1375
I3
sV7501241
p1376
I1
sV7501246
p1377
I3
sV7501247
p1378
I1
sV7501244
p1379
I3
sV\u987f\u65f6
p1380
I1
sV\u7537\u795e
p1381
I1
sV\u96be
p1382
I3
sV200
p1383
I1
sV2Fmp3
p1384
I1
sV\u4e8b\u5927
p1385
I1
sV\u5b64\u82e6
p1386
I1
sV\u5fc5\u8fc7
p1387
I1
sV\u6613\u51b7
p1388
I2
sV\u62dc\u6258
p1389
I1
sV\u754c
p1390
I1
sV\u5455
p1391
I2
sV\u521a\u521a
p1392
I2
sV\u8fd8
p1393
I147
sV\u6b63\u8f68
p1394
I1
sV\u77e5\u4e0d\u77e5\u9053
p1395
I1
sV\u9aa4
p1396
I11
sV\u539f\u56fe
p1397
I2
sV\u7167
p1398
I1
sV\u53d1\u7ed9
p1399
I1
sV\u524d\u594f
p1400
I1
sV\u54ea
p1401
I1
sV\u5988\u5976
p1402
I1
sV680
p1403
I6
sV\u9664\u4e86
p1404
I7
sV20150424
p1405
I19
sV20150425
p1406
I3
sV10822
p1407
I5
sV\u60a8
p1408
I1
sV20150428
p1409
I6
sV\u56fe
p1410
I12
sV\u4e0d\u77e5
p1411
I1
sV\u613f\u80fd
p1412
I1
sV\u6ce8\u518c
p1413
I5
sVQAQ
p1414
I1
sV7597013
p1415
I1
sV53166
p1416
I2
sV\u60a0\u95f2
p1417
I4
sV\u5410
p1418
I1
sV\u5f7c\u6b64
p1419
I1
sV\u6211\u54e5
p1420
I1
sV\u6881\u6c49\u6587
p1421
I1
sV\u7ec4
p1422
I2
sV\u6d3b\u52a8
p1423
I8
sV\u5a24
p1424
I1
sV\u4e3b\u529b\u519b
p1425
I1
sVtitle
p1426
I700
sV\u732a
p1427
I3
sV\u813e\u6c14
p1428
I2
sV7959578
p1429
I2
sV\u8d77\u6797
p1430
I1
sV\uff89
p1431
I1
sV\u59b9
p1432
I9
sV\u7838
p1433
I17
sV\u5b50\u51cc
p1434
I4
sV\u50bb\u7136
p1435
I1
sV\u542c\u89c1
p1436
I1
sVH
p1437
I1
sV\u6bcf\u65e5
p1438
I3
sV\u4e03\u8a00
p1439
I11
sV\u7bee\u5b50
p1440
I1
sV\u6bd4\u7231
p1441
I1
sV\u51f9\u51f8
p1442
I1
sV\u6728\u6728
p1443
I2
sV\u6bd4\u5229
p1444
I2
sV\u4e00\u665a
p1445
I14
sV\u4e0d\u79bb
p1446
I1
sV\u6e29\u5b58
p1447
I1
sV\u53ec\u5524
p1448
I1
sV\u5566
p1449
I56
sV\u8fd9\u6b21
p1450
I1
sV\u6c88\u51e4\u521d
p1451
I3
sV\u4eca\u975e\u6614\u6bd4
p1452
I1
sV\u52a8\u65f6
p1453
I1
sV\u597d\u4e45
p1454
I1
sV\u60f3
p1455
I84
sV\u9ad8\u4eff
p1456
I9
sV\u610f\u4e2d\u4eba
p1457
I2
sV\u76f4\u63a5
p1458
I3
sV\u4e0d\u5999
p1459
I1
sV\u6700\u597d
p1460
I3
sV\u7535\u8bdd
p1461
I2
sV\u8bd5\u70bc
p1462
I1
sV\u9700\u8981
p1463
I7
sV\u6a84
p1464
I2
sV\u6607
p1465
I22
sV\u5367\u69fd
p1466
I7
sV\u65e7\u67e0
p1467
I1
sV\u5e95\u7ebf
p1468
I2
sV\u9ad8\u6e05
p1469
I2
sV\u672c\u5e16
p1470
I14
sV\u4e09\u4ef6\u5957
p1471
I1
sV\u738b\u8d77
p1472
I1
sV\u94b1\u52bf
p1473
I2
sV\u6700\u8fd1
p1474
I4
sV\u4e0d\u597d
p1475
I8
sV\u5fae\u7b11
p1476
I1
sV\u771f\u5e05
p1477
I1
sV2F70347CDC3BE24D526656A70ACA6B1558
p1478
I1
sV\u63b0\u63b0
p1479
I2
sV\u4e0d\u4e86\u60c5
p1480
I1
sV\u9ad8\u4e2d
p1481
I1
sV\u670b\u53cb
p1482
I19
sV\u52b2\u513f
p1483
I1
sV\u6253\u7b97
p1484
I1
sV\u5929\u8d4b
p1485
I4
sV41312
p1486
I21
sV3
p1487
I66
sV\u5b66\u8005
p1488
I1
sV\u4f53\u9a8c
p1489
I1
sV\u7aa5\u5c4f
p1490
I1
sV\u543b
p1491
I1
sV\u90a3\u5934
p1492
I1
sVpid7597010
p1493
I1
sV\u670d\u88c5
p1494
I1
sV\u8d77\u6765
p1495
I7
sV\u5220
p1496
I5
sV\u522b\u540e
p1497
I11
sV\u80e1\u519b
p1498
I1
sV\u9053
p1499
I1
sV\u529e\u4e8b
p1500
I2
sV\u800c\u5df2
p1501
I2
sV\u5ab3\u5987
p1502
I5
sV\u6b21\u96fe
p1503
I1
sV22
p1504
I20
sV\u6d4f\u89c8
p1505
I9
sV23
p1506
I8
sV\u4eec
p1507
I4
sV\u4e00\u66f2
p1508
I11
sV549814
p1509
I1
sV549811
p1510
I1
sV\u60ca\u5929
p1511
I1
sV549813
p1512
I1
sV549812
p1513
I1
sV\u5979
p1514
I37
sV\u5bb9\u6613
p1515
I3
sV300YB
p1516
I2
sV3D554564
p1517
I3
sV\u5ff5\u5ff5\u4e0d\u5fd8
p1518
I1
sV\u6545\u4e8b
p1519
I93
sV7641776
p1520
I1
sV7641772
p1521
I1
sV\u723d\u6b7b
p1522
I7
sV\u4e09\u53c9
p1523
I2
sV61
p1524
I3
sV\u592a\u5dee
p1525
I1
sV\u6696\u5fc3
p1526
I1
sV64
p1527
I9
sV\u6a21\u5f0f
p1528
I2
sV\u8001\u5a18
p1529
I1
sV68
p1530
I1
sV69
p1531
I1
sV\u653e\u5927
p1532
I1
sV157
p1533
I1
sV\u6d17\u6fa1
p1534
I3
sV\u591c\u957f
p1535
I1
sV\u81ea\u52a8
p1536
I1
sV\u57fa\u7840
p1537
I1
sV\u6c11
p1538
I1
sV\u5de5\u4f5c
p1539
I1
sVcqy
p1540
I3
sV33574
p1541
I2
sV\u4e09\u73ed
p1542
I2
sV\u51cc\u5b50
p1543
I9
sV\u5e05\u7afa
p1544
I1
sV7513670
p1545
I1
sV\u518d\u4e5f
p1546
I2
sV\u773c
p1547
I2
sV\u56fe\u7247
p1548
I2
sV\u8981\u7701
p1549
I1
sV\u51cc\u5b50\u51cc
p1550
I1
sV\u70b9\u82b1
p1551
I1
sV548769
p1552
I1
sV\u771f\u5fc3
p1553
I4
sV\u6076\u5fc3
p1554
I1
sV5651
p1555
I3
sV\u62b1\u62b1
p1556
I1
sV\u4f55\u5fc5
p1557
I3
sV\u4e00\u6761
p1558
I2
sVbibibi
p1559
I1
sVVars
p1560
I1
sV\u5c3f
p1561
I1
sV\u86cb\u86cb
p1562
I4
sV\u5fc3\u613f
p1563
I1
sV\u53ef\u9760
p1564
I1
sV\u81f3
p1565
I1
sV\u6c92
p1566
I1
sV\u5931\u8d25
p1567
I1
sV\u804a\u5929
p1568
I2
sV\u4e0d\u62c9\u51e0
p1569
I1
sV\u7a7a
p1570
I1
sVmargin
p1571
I9
sV\u5439\u6389
p1572
I1
sV\u8c01
p1573
I71
sV\u53ea
p1574
I95
sV7596268
p1575
I1
sV\u4eca\u665a
p1576
I1
sV\u6240
p1577
I1
sV7596266
p1578
I1
sV\u628a
p1579
I16
sVOai
p1580
I1
sVContent
p1581
I1
sV\u8bf4\u5b9e\u8bdd
p1582
I1
sV\u5e26\u6765
p1583
I1
sV\u7948\u6c42
p1584
I1
sV\u679c
p1585
I5
sV\u5927\u4f17
p1586
I2
sV\u591c\u95f4
p1587
I1
sV\u4fdd\u62a4
p1588
I1
sV\u91ce\u832b\u832b
p1589
I1
sV\u4e2d
p1590
I67
sV\u6728
p1591
I1
sV\u65e0\u540d
p1592
I1
sV\u65b0
p1593
I7
sVhtml
p1594
I5
sV\u4e71\u731c
p1595
I1
sV\u50bb\u7f3a
p1596
I2
sV\u6ce5\u58d5
p1597
I1
sVdocument
p1598
I36
sV\u6267\u5ff5\u4e8e
p1599
I1
sV\u6700\u5927
p1600
I2
sVstatus
p1601
I6
sV\u5f62\u8c61
p1602
I1
sVI
p1603
I1
sVIP
p1604
I1
sV7501340
p1605
I2
sV7501346
p1606
I3
sV7501345
p1607
I2
sV\u98ce
p1608
I3
sV\u5bc6\u7801
p1609
I3
sV\u841d\u8389\u738b
p1610
I4
sV\u591a\u591a
p1611
I9
sV\u91cd\u8e48\u8986\u8f99
p1612
I1
sV\u7070\u59d1\u5a18
p1613
I1
sVID
p1614
I62
sV\u8ab0
p1615
I1
sV\u6ce8\u5165
p1616
I1
sV\u6d17\u8f66
p1617
I1
sV\u4e0d\u719f
p1618
I2
sV\u773c\u524d
p1619
I1
sV\u5373\u4f7f
p1620
I1
sV\u6797\u6ee2
p1621
I2
sV\u6f0f\u6389
p1622
I1
sV\u54e6
p1623
I23
sV11256
p1624
I10
sV\u82f1\u8bed
p1625
I1
sV\u8d6b
p1626
I6
sV\u4e0d\u82df\u8a00\u7b11
p1627
I1
sV\u6211\u840c
p1628
I1
sV\u613f\u610f
p1629
I1
sV\u4e86\u89e3
p1630
I2
sV\u4e00\u4e2a\u6708
p1631
I2
sV\u9879
p1632
I3
sV\u767d
p1633
I3
sV\u5c71\u8def
p1634
I3
sV\u98ce\u96e8
p1635
I11
sV\u4e00
p1636
I30
sVFlash
p1637
I1
sV\u4e3a\u53cb
p1638
I2
sV218
p1639
I1
sV\u6211\u96fe
p1640
I1
sV\u5fc3\u8840\u6765\u6f6e
p1641
I1
sV\u7eaf\u5c5e
p1642
I1
sV\u9c7c\u5fc6
p1643
I1
sV\u6d3b\u8be5
p1644
I1
sVcn
p1645
I1
sV\u4e3b\u5176\u5be6
p1646
I1
sVtitleYzy
p1647
I1
sV\u67d0\u5e74
p1648
I3
sV\u73a9
p1649
I23
sV\u53cd\u800c
p1650
I1
sV\u7136\u540e
p1651
I17
sV\u5df2\u6709
p1652
I1
sV\u674e\u8363\u6d69
p1653
I3
sV\u76d8\u70b9
p1654
I1
sV7597029
p1655
I1
sV4
p1656
I32
sV\u8f6f\u59b9
p1657
I7
sV\u5929\u5730
p1658
I1
sV\u4eca\u65e5
p1659
I1
sV\u55bd
p1660
I3
sV\u767d\u8d77
p1661
I3
sV\u4e0d\u7ba1
p1662
I2
sV\u7537
p1663
I1
sV\u65e0\u77e5
p1664
I2
sV\u03c9
p1665
I10
sV\u5c4c
p1666
I1
sV\u592a\u6df1
p1667
I1
sV\u968f\u4fbf
p1668
I1
sV\u4eb2\u8fc7
p1669
I1
sV\u975e\u5f97
p1670
I1
sV\u8017\u5c3d
p1671
I1
sV\u521d\u604b
p1672
I1
sVmod
p1673
I2
sV3Dfixnone
p1674
I9
sV\u5929\u4f7f
p1675
I5
sV\u65e0\u5229\u53ef\u56fe
p1676
I1
sV\u73e9
p1677
I1
sV7959568
p1678
I3
sV\u5c0f\u840c\u840c
p1679
I18
sV\u4e0d\u7b97
p1680
I1
sV\u508d\u6811
p1681
I1
sVt
p1682
I25
sV\u521b\u5efa
p1683
I1
sV\u5bf9
p1684
I28
sV\u5934\u75bc
p1685
I1
sV\u89e3\u5343\u6101
p1686
I11
sV\u8fd8\u6709
p1687
I25
sVdoll
p1688
I1
sV\u8309
p1689
I1
sV\u83ab\u84c9
p1690
I3
sVOUT
p1691
I1
sV\u89c9\u5f97
p1692
I14
sV\u5de6\u53f3
p1693
I1
sV\u4f20\u8bf4
p1694
I14
sV\u6e05\u695a
p1695
I1
sV244
p1696
I1
sV\u53d1\u6d88\u606f
p1697
I86
sV\u53cb\u5c3d
p1698
I1
sV\u6e38\u620f
p1699
I8
sV\u5427
p1700
I170
sV\u52a8
p1701
I1
sV\u97f3\u7bb1
p1702
I1
sV\u751f\u65e5\u5feb\u4e50
p1703
I4
sV\u5bf9\u8c61
p1704
I1
sV\u6233
p1705
I1
sV\u626b\u5730
p1706
I1
sV\u611f\u6fc0\u4e0d\u5c3d
p1707
I1
sV\u4e0d\u5b5d
p1708
I6
sV\u8bf4\u4e0d\u4e0a
p1709
I1
sV\u8f6f\u5934
p1710
I2
sV\u6708\u4efd
p1711
I1
sV\u591c\u96e8
p1712
I2
sV\u6ca1
p1713
I45
sV\u7559\u540d
p1714
I1
sV\u738b\u5b89\u77f3
p1715
I1
sV\u524d\u4e24\u5929
p1716
I1
sV\u5783\u573e\u6876
p1717
I2
sV\u5427\u52a1\u4eec
p1718
I1
sV\u7334\u5b50
p1719
I5
sV\u5973\u56e2
p1720
I3
sV\u90a3\u95f2
p1721
I1
sV\u5927\u8d77\u5927\u843d
p1722
I1
sV\u9762\u677f
p1723
I1
sV\u676f\u9152
p1724
I4
sV_
p1725
I498
sV\u95f7\u95f7
p1726
I1
sV\u59a5\u534f
p1727
I13
sV\u5965
p1728
I7
sV\u8309\u513f
p1729
I1
sV\u57ce\u590f
p1730
I2
sV\u539f\u53f7
p1731
I1
sV\u5730\u677f
p1732
I5
sV\u6e05\u65b0
p1733
I1
sV\u6960\u4e03\u662f
p1734
I1
sV\u59d1\u5a18
p1735
I1
sV\u73cd\u60dc
p1736
I1
sV376
p1737
I1
sV\u54fc
p1738
I16
sV\u97e9\u6587
p1739
I2
sV\u50cf\u662f
p1740
I1
sV\u9694\u58c1\u5bb6
p1741
I2
sV\u539f\u521b
p1742
I1
sV\u6587
p1743
I2
sVimage
p1744
I1
sV\u5bc2\u51c9
p1745
I1
sV7813349
p1746
I1
sV\u6bc1\u5e16
p1747
I1
sV\u7a7a\u95f4
p1748
I9
sV\u51dd\u4f4f
p1749
I1
sV\u6ca1\u4eba
p1750
I4
sV7813347
p1751
I1
sV\u5531\u6b4c
p1752
I11
sV\u5bcc\u58eb\u5c71
p1753
I1
sV\u7f62\u4e86
p1754
I2
sV\u6c14\u6c1b
p1755
I1
sV\u627e\u56de
p1756
I1
sV\u5728\u6211\u770b\u6765
p1757
I1
sV\u4e0d\u5acc
p1758
I1
sV\u6ca1\u4e8b
p1759
I5
sV\u6765\u5230
p1760
I1
sV\u66b1
p1761
I1
sV\u6742\u4e71
p1762
I1
sV\u54bd
p1763
I2
sV\u4eb2\u8eab
p1764
I1
sV\u70ed\u60c5
p1765
I2
sV\u6c42
p1766
I11
sV\u88c5
p1767
I3
sV\u8003\u597d
p1768
I1
sV\u5fae\u98ce
p1769
I3
sV\u62c9
p1770
I1
sV\u804a
p1771
I4
sV\u5bb6\u56ed
p1772
I1
sV\u9a9a\u5e74
p1773
I1
sV\u52fe\u642d
p1774
I4
sV\u4e56
p1775
I1
sV\u7231\u4e0a
p1776
I19
sVwith
p1777
I1
sV\u6ee1\u773c
p1778
I1
sV\u653e\u5b66
p1779
I12
sV\u4f60\u597d
p1780
I30
sV\u66f4\u70b9
p1781
I1
sV\u5475\u5475
p1782
I15
sV\u6eda\u6765
p1783
I1
sV\u7206\u51fa
p1784
I1
sV\u9017\u6bd4\u6696\u5fc3
p1785
I1
sV\u5ffd\u89c6
p1786
I1
sV\u4e00\u773c
p1787
I1
sV\u5e76
p1788
I3
sV\u7af9
p1789
I2
sV\u987a
p1790
I1
sV\u76f8\u5f53\u4e8e
p1791
I3
sV\u8fd9\u6837
p1792
I6
sV\u65f6\u671f
p1793
I1
sV\u538c\u5026
p1794
I4
sV\u5c11\u5973
p1795
I9
sV\u9f99\u541f
p1796
I1
sV\u8fa3\u8fa3
p1797
I1
sV7983021
p1798
I1
sV1206
p1799
I1
sV\u5c0d
p1800
I1
sV\u4f24\u53e3
p1801
I2
sV\u590f
p1802
I4
sV\u6765\u8005\u4e0d\u62d2
p1803
I1
sV\u81e5\u69fd
p1804
I1
sV\u597d\u4e0d\u5bb9\u6613
p1805
I1
sV2982196051
p1806
I3
sV8277
p1807
I6
sV\u53d8\u6210
p1808
I2
sVtitle7k7k
p1809
I2
sV\u56fd\u9645
p1810
I1
sV\u8bf4\u597d
p1811
I1
sV\u8fd8\u662f
p1812
I24
sV\u6df7\u4e0d\u4e0b\u53bb
p1813
I1
sV\u6062\u590d
p1814
I2
sV\u90aa
p1815
I1
sV\u4e0d\u77e5\u4e0d\u89c9
p1816
I1
sV\u8fd1\u6218
p1817
I2
sV5
p1818
I214
sV\u5148
p1819
I1
sV\u5df2\u52a0
p1820
I1
sVyou
p1821
I1
sV\u75bc
p1822
I2
sV\u513f
p1823
I3
sV\u98ce\u5728
p1824
I3
sV\u6587\u5316
p1825
I1
sV\u82cf\u67e0\u66e6
p1826
I1
sV\u8003\u5b8c
p1827
I1
sV\u74dc\u845b
p1828
I8
sV\u6807\u9898
p1829
I1
sV\u7cbe\u5f69
p1830
I6
sV\u54d2
p1831
I30
sV\u7a31
p1832
I1
sV\u5fc3\u75c5
p1833
I1
sV\u5317\u6751
p1834
I1
sV\u4ed6
p1835
I19
sV\u6700\u9ad8
p1836
I1
sV484
p1837
I1
sV482
p1838
I11
sV\u63d0\u9ad8
p1839
I3
sV\u516b\u6960
p1840
I2
sV\u5567
p1841
I1
sV\u8fdb\u8d34
p1842
I9
sV\u96be\u8150
p1843
I4
sV\u9006\u8f6c
p1844
I1
sV\u6069\u6a13
p1845
I1
sV\u7231\u4eba
p1846
I4
sV\u795e\u6765
p1847
I1
sV\u7535\u68af
p1848
I8
sV520titlesusususu
p1849
I1
sV\u8fdb\u8d27
p1850
I1
sV\u6069\u5bf9
p1851
I1
sV\u7206\u7167
p1852
I18
sV\u7b26\u5408
p1853
I2
sV\u4fdd\u6301
p1854
I1
sV\u957f\u4e45
p1855
I2
sV\u7b11\u7b11
p1856
I1
sV\u522b\u4ee5\u4e3a
p1857
I1
sV\u9000
p1858
I2
sV\u6c5f\u6e56
p1859
I13
sV\u88c5\u5907
p1860
I1
sV\u901a\u8fc7
p1861
I7
sV\u5343\u4e07
p1862
I2
sV\u820c
p1863
I1
sV2015054
p1864
I1
sV\u8f93\u5165\u6cd5
p1865
I1
sV\u6b4c\u66f2
p1866
I3
sVmp3
p1867
I3
sV\u8fc7\u5f80
p1868
I3
sV2015056
p1869
I16
sV\u5e9f
p1870
I2
sVTAT
p1871
I1
sV\u5171\u8ba1
p1872
I1
sV\u96c6\u9f50
p1873
I3
sV\u7ecf\u9a8c
p1874
I9
sV\u7cfb\u5217
p1875
I1
sV\u5220\u9664
p1876
I1
sV\u4f59\u84dd\u65e7
p1877
I1
sV\u9898\u76ee
p1878
I1
sV\u73e0\u7389
p1879
I1
sV\u5927\u529b
p1880
I2
sV\u661f\u8fb0
p1881
I16
sV\u968f\u968f\u4fbf\u4fbf
p1882
I1
sVto
p1883
I8
sV\u4f3c\u7684
p1884
I4
sV\u6d3b\u7740
p1885
I1
sV\u4e3a\u4e86
p1886
I4
sV20150512
p1887
I3
sV\u987e\u6ee2
p1888
I1
sV\u5206\u4eab
p1889
I8
sV\u72c2\u5984
p1890
I1
sV\u82b1\u82b1
p1891
I1
sV\u5929\u7a7a
p1892
I1
sV\u548c\u8c10
p1893
I3
sV\u6309\u7167
p1894
I1
sVq872129927
p1895
I1
sV\u8282\u594f
p1896
I1
sV\u9053\u5177
p1897
I86
sV\u72d7
p1898
I23
sV\u795d\u798f
p1899
I6
sV\u5c18\u4e16
p1900
I1
sV\u79cd\u7c7b
p1901
I1
sVcommon
p1902
I1
sV\u54ea\u697c
p1903
I2
sV\u6362
p1904
I8
sV\u65e0\u89c6
p1905
I2
sV\u70eb
p1906
I1
sV\u4e3b\u9898
p1907
I84
sV\u4eba\u5fc3
p1908
I3
sV\u5b9e\u5728
p1909
I1
sV\u516d\u5e74
p1910
I1
sV\u64c5\u957f
p1911
I1
sV\u5220\u5e16
p1912
I2
sV7596187
p1913
I2
sV\u6d45\u8bfa
p1914
I4
sV\u6478
p1915
I1
sV\u8fbe
p1916
I1
sV\u9650\u4e8e
p1917
I1
sV\u7761
p1918
I1
sV\u4eff
p1919
I2
sV\u5403
p1920
I5
sV\u7684
p1921
I539
sV\u6bcf\u5929
p1922
I5
sV\u4e0d\u6562
p1923
I1
sV\u6e23\u6e23
p1924
I1
sV\u7f8a
p1925
I1
sV\u4e00\u9635\u5b50
p1926
I1
sV7859730
p1927
I1
sV\u9738\u9738
p1928
I2
sV\u8521\u5065\u96c5
p1929
I1
sV\u4e94
p1930
I2
sV\u5413\u54ed
p1931
I3
sV3Fmod
p1932
I9
sV\u4eba\u592a\u5c11
p1933
I1
sV\u6218\u58eb
p1934
I1
sVBye
p1935
I1
sV\u770b\u8d77\u6765
p1936
I1
sV\u4ece\u524d
p1937
I1
sV\u8d25\u738b
p1938
I1
sV\u5206\u4e3a
p1939
I2
sV\u7b2c\u4e09\u540d
p1940
I1
sV\u968f\u98ce
p1941
I1
sV\u5018\u82e5
p1942
I1
sV17310
p1943
I2
sV\u5fae\u673a
p1944
I1
sV\u6d77\u7b11
p1945
I1
sV\u6837\u5b50
p1946
I3
sV\u6539
p1947
I1
sV\u6de1\u5fd8
p1948
I1
sV\u5168\u5bb6
p1949
I1
sV\u8001\u767d
p1950
I2
sV\u80cc\u53db
p1951
I2
sV\u4e0d\u5173
p1952
I1
sV\u5443
p1953
I1
sV\u6797\u73c2
p1954
I1
sV\u914d
p1955
I1
sVK
p1956
I36
sV20150629
p1957
I5
sV1111111111111111111111111111
p1958
I1
sV\u6bd2
p1959
I2
sV\u4f55
p1960
I11
sV\u548c\u5e73
p1961
I2
sV\u8bbe\u7f6e
p1962
I1
sV\u4e4b\u95f4
p1963
I1
sV\u5bbe\u679c
p1964
I1
sV\u6614\u65e5
p1965
I11
sV\u5c31\u522b
p1966
I1
sV\u600e\u4e48
p1967
I23
sV\u522b\u8822
p1968
I1
sV\u4e5d\u7237
p1969
I1
sV\u6625\u98ce
p1970
I11
sV\u6765
p1971
I20
sV\u5b50\u51cc\u5b50
p1972
I1
sV\u5feb\u5feb
p1973
I2
sV\u0ce8
p1974
I5
sV\u706b
p1975
I3
sV\u6700\u65e9
p1976
I1
sV\u6e29\u67d4
p1977
I2
sV\u95ee
p1978
I12
sV\u83b7\u5f97
p1979
I10
sV\u7ffb\u8b6f
p1980
I1
sV\u6682\u65f6
p1981
I1
sV\u4e09\u4e2a
p1982
I4
sV\u8fd8\u597d
p1983
I3
sV2165
p1984
I1
sV\u66ae\u8272
p1985
I3
sV\u961f\u5f62
p1986
I2
sV\u6e7f
p1987
I1
sV7481722
p1988
I1
sV\u63a7\u5236
p1989
I1
sV2614
p1990
I4
sV\u6709\u610f
p1991
I1
sV7813518
p1992
I1
sV\u53ea\u5b57\u672a\u63d0
p1993
I1
sV\u618b
p1994
I3
sV\u4f5c\u4e1a
p1995
I9
sV\u4eba\u7ea2
p1996
I1
sVhref
p1997
I15
sV\u8868\u6f14
p1998
I1
sV\u4f20\u67d3
p1999
I1
sV\u4e16\u4fd7
p2000
I1
sV\u539f\u8c05
p2001
I3
sV\u7a9d
p2002
I7
sV\u8fc7\u5e8a
p2003
I1
sV\uff9f
p2004
I2
sVLacey
p2005
I1
sV3452
p2006
I25
sV\u661f\u4eba
p2007
I1
sV\u4e2a
p2008
I23
sV\u5357\u886b
p2009
I1
sV\u4e4b\u540e
p2010
I3
sV\u767e\u6bd2\u4e0d\u4fb5
p2011
I2
sV\u6211\u89c1
p2012
I1
sV\u524d\u6392
p2013
I3
sV7K7K
p2014
I160
sV\u8fde
p2015
I2
sV\u70e6\u4eba
p2016
I1
sV\u7a76\u7adf
p2017
I2
sV\u73b0\u5df2
p2018
I2
sV\u70ab\u8000
p2019
I1
sV20150430
p2020
I93
sV\u597d\u4e0d\u597d
p2021
I3
sV\u4e0d
p2022
I133
sV\u8bf4\u4e0d\u51fa
p2023
I1
sV\u6768\u5343\u5b05
p2024
I1
sV\u62cd
p2025
I1
sV\u6628\u5929
p2026
I3
sV\u7a00\u7f55
p2027
I1
sV7000
p2028
I1
sV7482340
p2029
I1
sV20559
p2030
I34
sV\u50bb
p2031
I5
sV\u4e4b\u547d
p2032
I8
sV7813357
p2033
I1
sV\u5a07\u59bb
p2034
I2
sVnone
p2035
I1
sV\u6765\u770b
p2036
I1
sV\u8fdb\u53bb
p2037
I1
sV\u5feb\u6b7b\u4e86
p2038
I1
sV\u6211\u8981
p2039
I11
sV\u5373\u53ef
p2040
I1
sVSM
p2041
I1
sVv
p2042
I9
sV\u6216\u8bb8
p2043
I2
sV\u4e03\u5e74
p2044
I1
sV\u5176\u5b9e
p2045
I12
sV\u6f02\u79fb
p2046
I12
sV\u7b97\u4e86
p2047
I4
sV\u963f\u767d
p2048
I30
sV\u53d8\u5c0f
p2049
I1
sV\u4e1c\u5317
p2050
I1
sV\u516d
p2051
I1
sVshare
p2052
I14
sV\u7edd\u60c5
p2053
I1
sV\u4e00\u679a
p2054
I1
sV\u7f8e\u4eba
p2055
I5
sV\u8d70\u5411
p2056
I1
sV\u91cd\u65b0
p2057
I2
sV\u5317
p2058
I1
sV\u4e00\u5b9a
p2059
I8
sVhhh
p2060
I6
sV\u597d\u73a9
p2061
I12
sV20150620
p2062
I19
sV\u5e1d\u738b
p2063
I1
sV\u6021
p2064
I1
sV\u7406\u7531
p2065
I3
sV\u62a2
p2066
I2
sV\u68a6
p2067
I1
sV\u611f\u52a8
p2068
I2
sV\u820d\u4e0d\u5f97
p2069
I3
sV\u5154\u5b50
p2070
I13
sV\u6e29\u6696
p2071
I1
sV\u6e05\u767d
p2072
I2
sV\u4e00\u5bb3
p2073
I1
sV\u5212\u5206
p2074
I1
sV\u5bd3\u610f
p2075
I1
sV\u8fc7\u9e21
p2076
I1
sV\u66fe\u7ecf
p2077
I2
sV\u4ed4\u7ec6
p2078
I2
sV\u6345\u7834
p2079
I1
sV\u5c3d\u91cf
p2080
I1
sV\u6ca6\u4e3a
p2081
I1
sV\u7ef8\u7f2a
p2082
I11
sV\u51b3\u5b9a
p2083
I4
sV\u672c\u5e05
p2084
I2
sV\u9886\u53d6
p2085
I3
sV\u6240\u6709
p2086
I1
sV\u624d
p2087
I13
sV\u6211\u6797\u6ee2
p2088
I1
sV\u7ea2\u679c
p2089
I5
sV\u666e\u901a
p2090
I1
sV\u5357
p2091
I1
sV\u548f\u903a\u5a9e
p2092
I1
sV20150622
p2093
I6
sV\u6218\u80dc
p2094
I1
sV\u6563
p2095
I15
sV\u67e0\u4e48
p2096
I1
sV\u8089\u76fe
p2097
I1
sV\u8d70\u51fa
p2098
I3
sV\u77ac\u95f4
p2099
I1
sV\u5076\u5c14
p2100
I9
sV\u4ec0\u9ebc
p2101
I3
sV\u516d\u7ffc
p2102
I4
sV\u65e7\u540d
p2103
I16
sV\u6bd4\u8f83
p2104
I6
sV\u597d\u53cb
p2105
I4
sV\u8f93\u51fa
p2106
I2
sV\u4e00\u5806
p2107
I3
sV\u5904\u7406
p2108
I1
sV\u4ec0\u4e48
p2109
I46
sV\u800c
p2110
I13
sV\u65e0\u8bba
p2111
I1
sV\u53d8\u5f97
p2112
I2
sV\u7528\u6765
p2113
I1
sV24
p2114
I23
sV25
p2115
I4
sV26
p2116
I7
sV27
p2117
I6
sV20
p2118
I34
sV21
p2119
I21
sV\u4e8b\u60c5
p2120
I5
sV\u6bd5\u4e1a
p2121
I7
sV\u54ea\u6015
p2122
I1
sV\u52ab
p2123
I1
sV28
p2124
I15
sV29
p2125
I9
sV\u54af
p2126
I5
sV\u8bb0\u4f4f
p2127
I4
sV727
p2128
I1
sV\u53ea\u6709
p2129
I4
sVpcb
p2130
I9
sV\u9884\u793a
p2131
I1
sV\u5fd8\u8bb0
p2132
I3
sV\u51b7\u9759
p2133
I1
sVqzshare
p2134
I32
sV2W
p2135
I1
sV\u75c5
p2136
I1
sVresizable
p2137
I6
sV\u02cb
p2138
I1
sVyb
p2139
I5
sVL
p2140
I1
sV\u8dd1\u817f
p2141
I2
sV\u65e0\u8bed
p2142
I11
sV2F
p2143
I10
sV\u53d1\u6765
p2144
I1
sV2L
p2145
I2
sV\u5e74
p2146
I3
sVTTtitle
p2147
I54
sV\u6028\u5c24
p2148
I11
sV\u8eb2\u732b\u732b
p2149
I1
sV\u73cd\u8d35
p2150
I1
sV\u4e0a\u8bfe
p2151
I1
sV\u65e5
p2152
I4
sV\u4e71
p2153
I1
sV\u8863\u670d
p2154
I1
sV\u544a\u8a34
p2155
I1
sV\u62ff\u4e0d\u51fa
p2156
I1
sV\u7b54\u5e94
p2157
I1
sV\u51ed
p2158
I3
sV\u8bc1\u636e
p2159
I1
sV\u65e9
p2160
I1
sV\u7ef3
p2161
I1
sV\u8ba4\u8bc6\u4e00\u4e0b
p2162
I1
sV\u4e00\u9875
p2163
I2
sV\u6ca1\u53d8
p2164
I1
sV\u770b\u5728\u773c\u91cc
p2165
I1
sV\u4e0d\u6765
p2166
I3
sV\u6d41\u8a00
p2167
I14
sV\u7edd\u5bf9
p2168
I1
sV111ttt
p2169
I1
sV\u6bc1\u6389
p2170
I1
sV\u8bed
p2171
I1
sV\u867d\u8d25\u72b9\u8363
p2172
I1
sV554564
p2173
I1
sV\u5438\u6c27
p2174
I1
sV\u4e0e\u65e5\u4ff1\u589e
p2175
I1
sV\u9017
p2176
I6
sV\u7396
p2177
I1
sV\u5c0f\u53f7
p2178
I15
sV26aid
p2179
I9
sV\u7cbe\u6218
p2180
I3
sV\u62a0
p2181
I2
sV174
p2182
I1
sV\u5927\u574f\u86cb
p2183
I1
sV\u5bf9\u8bdd\u6846
p2184
I2
sV\u989d
p2185
I3
sV\u522b
p2186
I7
sV6666
p2187
I1
sV\u53ef\u73a9\u6027
p2188
I1
sV\u95ed\u8d77
p2189
I4
sV7
p2190
I79
sV7501342
p2191
I3
sV\u738b\u4e4b\u5fc3
p2192
I81
sV\u5267\u70c8
p2193
I1
sV\u5f53
p2194
I2
sV\u58a8\u753b
p2195
I5
sV\u7269\u9632
p2196
I1
sV\u5f00\u8fc7
p2197
I1
sV\u6162\u6162
p2198
I3
sV\u65e5\u672c\u7c4d
p2199
I1
sV\u624b
p2200
I4
sV\u5b58\u5728
p2201
I2
sV\u95ee\u9898
p2202
I1
sV\u3057
p2203
I2
sV\u6d77
p2204
I81
sV\u4e0d\u582a
p2205
I1
sV\u795d
p2206
I3
sV\u4e00\u5927
p2207
I1
sV\u6361
p2208
I1
sV\u6c34\u697c
p2209
I1
sVthread
p2210
I5
sV\u4ee8
p2211
I1
sV\u8dea
p2212
I1
sV\u533b\u751f
p2213
I1
sV\u7b71
p2214
I1
sV\u4eca\u5929
p2215
I12
sV\u62b1\u7d27
p2216
I2
sV\u7231\u73a9
p2217
I1
sV\u597d\u50cf
p2218
I8
sVJ3x
p2219
I1
sV\u597d\u611f
p2220
I1
sV\u4ffe
p2221
I1
sV\u6ca1\u52a0
p2222
I5
sV\u8bb0\u4e0d\u5f97
p2223
I1
sV\u4e0b\u6765
p2224
I1
sV\u7167\u987e
p2225
I1
sV\u8349\u8393
p2226
I42
sV\u660e
p2227
I2
sV\u707f\u59ae
p2228
I1
sV\u4e00\u9635\u98ce
p2229
I1
sV\u53ea\u662f
p2230
I11
sV\u75af
p2231
I1
sV\u6536\u6536
p2232
I13
sV\u5438\u8db3
p2233
I1
sV\u4e0d\u66fe
p2234
I1
sV\u90a3\u6837
p2235
I3
sV\u591c
p2236
I1
sV\u60ca\u5446
p2237
I1
sV\u6d6a\u8d39
p2238
I1
sV\u6f5c\u6c34
p2239
I1
sV\u6bd4\u8d5b
p2240
I1
sV\u5f00\u4e2a
p2241
I9
sV\u53bb\u7559
p2242
I11
sV\u4e00\u5929
p2243
I1
sV\u6211\u8bdd
p2244
I1
sV\u5854
p2245
I3
sV\u795d\u7afa
p2246
I13
sV\u76d7\u53f7
p2247
I1
sV\u516c\u5e73
p2248
I1
sV\u5206\u914d\u5668
p2249
I1
sV\u9ad8\u51b7
p2250
I1
sV\u5c71\u5357
p2251
I1
sV\u4f38\u624b
p2252
I1
sV\u8584\u60c5
p2253
I1
sV\u98d8\u8fc7
p2254
I1
sVXD
p2255
I1
sV\u575a\u6301
p2256
I1
sV\u8d70\u5f00
p2257
I2
sV\u90a3\u4e9b
p2258
I1
sV\u6574\u7406
p2259
I1
sV\u6f14\u827a\u5708
p2260
I2
sVdaladaladaladalada
p2261
I15
sVb
p2262
I1
sVaaa
p2263
I1
sV\u751f\u65e5\u793c\u7269
p2264
I1
sV\u53eb
p2265
I18
sV\u9884\u77e5
p2266
I1
sV\u54c8\u54c8
p2267
I4
sV\u55ef
p2268
I41
sV\u4e03\u753b
p2269
I3
sV20150624
p2270
I8
sV\u9019\u88e1\u6703
p2271
I1
sV\u8ba8\u538c
p2272
I3
sV7481844
p2273
I1
sV\u5927\u91cf
p2274
I2
sV\u8bfb
p2275
I4
sV\u653b\u7565
p2276
I1
sV\u51e0\u4e2a
p2277
I4
sV\u5f88
p2278
I25
sV\u800d
p2279
I1
sV\u70b9\u8d5e
p2280
I1
sVq1240208332
p2281
I1
sV\u9633\u5149
p2282
I1
sV7513797
p2283
I1
sV\u544a\u8bc9
p2284
I5
sV\u5982\u679c
p2285
I10
sV\u841d\u8389
p2286
I7
sV3A
p2287
I10
sV\u534a\u8eab\u4e0d\u9042
p2288
I1
sV\u516c\u6d4b\u7248
p2289
I1
sV\u7f51\u5740
p2290
I1
sV\u5341\u5929
p2291
I1
sV\u667a\u5546
p2292
I2
sV7K
p2293
I1
sVfa
p2294
I1
sV\u5347\u7ea7
p2295
I3
sVinternal
p2296
I2
sV\u8fdb\u5165
p2297
I2
sV\u0639
p2298
I1
sV\u4f7f\u8005
p2299
I12
sVk8
p2300
I7
sV\u4eba\u5c11
p2301
I1
sV\u9241
p2302
I1
sV\u70c2
p2303
I16
sV\u5947
p2304
I6
sV\u653e\u8fc7
p2305
I2
sV\u8f7b\u8f7b
p2306
I2
sV\u4e0d\u662f
p2307
I28
sV\u7cca
p2308
I1
sV\u4e60\u60ef
p2309
I4
sV\u4e00\u79cd
p2310
I1
sV77
p2311
I1
sV76
p2312
I1
sV75
p2313
I1
sV\u4e00\u4e2a\u5929
p2314
I1
sV71
p2315
I1
sV\u5a01\u671b
p2316
I1
sV\u564e
p2317
I1
sV\u4e07\u4e8b
p2318
I2
sV\u751f\u6b7b
p2319
I14
sV\u4e5f\u8bb8
p2320
I3
sV\u5931\u53bb
p2321
I1
sV\u4e0d\u660e
p2322
I1
sV\u51e0\u4e4e
p2323
I3
sV\u6536\u85cf
p2324
I8
sV\u7ae5\u989c
p2325
I4
sVpengyou
p2326
I8
sV\u6ed1\u8fc7
p2327
I1
sV\u6069\u8d50
p2328
I14
sV\u6b7b
p2329
I27
sV\u671d\u5915
p2330
I1
sV\u5de6\u8033
p2331
I11
sV669
p2332
I3
sV\u6765\u81ea
p2333
I3
sV\u4ea4\u4e2a
p2334
I1
sV\u7f51\u7ebf
p2335
I1
sV\u9732\u5929\u7535\u5f71
p2336
I2
sV\u6893
p2337
I3
sV\u5e78\u597d
p2338
I4
sV\u5199
p2339
I4
sV\u60f3\u5f97\u5230
p2340
I1
sV\u5c9b
p2341
I10
sV\u5143\u6c14
p2342
I2
sVtitleSnower
p2343
I1
sV\u5f53\u521d
p2344
I3
sV\u65e7\u51dd
p2345
I1
sV\u8eab\u540e
p2346
I1
sV\u6ce8\u4ecb\u4e2a
p2347
I1
sV\u6708\u672b
p2348
I1
sV\u63d0\u5347
p2349
I12
sV\u7c7b\u578b
p2350
I2
sV8
p2351
I21
sV\u633a
p2352
I6
sV\u77e5\u9053
p2353
I41
sV\u591a\u60f3
p2354
I1
sV\u5440
p2355
I7
sV\u4e50\u82b1
p2356
I1
sV\u540c\u4e00\u4e2a
p2357
I1
sV28909
p2358
I2
sV\u65e0\u8def
p2359
I1
sV\u82cf
p2360
I1
sV\u8dd1
p2361
I1
sVYwf
p2362
I1
sV\u786e\u5b9a
p2363
I1
sV\u786e\u5b9e
p2364
I1
sV\u611f\u60c5
p2365
I6
sV\u732b\u54aa
p2366
I1
sV\u7adf
p2367
I2
sV\u4e0d\u50b2
p2368
I1
sV\u5218\u706b\u534e
p2369
I2
sV\u809a\u5b50\u75bc
p2370
I1
sV\u6f14\u5458
p2371
I2
sV\u4e0d\u8bf4
p2372
I2
sV\u4eff\u5b57
p2373
I1
sV\u6d41\u6cea
p2374
I2
sV\u575a\u4fe1
p2375
I1
sV\u516e
p2376
I2
sV\u9001\u82b1
p2377
I1
sV7596367
p2378
I1
sV7502252
p2379
I1
sV\u5f53\u524d
p2380
I79
sV\u7ed3\u75c2
p2381
I1
sV\u6ca1\u75db
p2382
I2
sV\u5929\u9e45
p2383
I1
sV\u5a07\u55d4
p2384
I1
sV\u6c14\u8d28
p2385
I1
sV\u81ea
p2386
I1
sV\u6ca1\u7528
p2387
I1
sV\u80fd\u5f39
p2388
I1
sV\u8001\u670b\u53cb
p2389
I1
sV\u6c90
p2390
I2
sV\u5a18
p2391
I1
sV2413023591
p2392
I2
sV\u606d\u559c
p2393
I3
sV\u8bc5\u5492
p2394
I5
sV\u8111\u5b50
p2395
I1
sV\u56de\u53bb
p2396
I25
sV\u6325
p2397
I1
sV\u4e00\u7ea7
p2398
I70
sV7505444
p2399
I3
sV\u98ce\u706b\u8f6e
p2400
I1
sV\u771f\u662f
p2401
I5
sV7596232
p2402
I1
sV\u65e0\u8a00\u4ee5\u5bf9
p2403
I3
sV\u6d41\u6c34
p2404
I2
sV\u8001\u5e08
p2405
I5
sV\u8212\u670d
p2406
I1
sV\u53c2\u4e0e
p2407
I1
sVwoc
p2408
I2
sV\u65f6\u8fc7\u5883\u8fc1
p2409
I1
sV\u7559\u4e0b
p2410
I1
sV\u52a1\u6765
p2411
I1
sV\u5c31\u7b97
p2412
I2
sV\u5f3a\u8feb
p2413
I1
sVk7k
p2414
I7
sV\u6276
p2415
I1
sVtitle1621041095
p2416
I2
sV\u9274\u4e8e
p2417
I1
sV\u7ec8\u4e8e
p2418
I1
sV\u5657
p2419
I2
sV\u51fa\u53bb
p2420
I2
sV\u538b\u8fc7
p2421
I1
sV\u51fa\u73b0
p2422
I3
sV\u51e0\u7387
p2423
I1
sV\u505c\u4e0d\u4e0b\u6765
p2424
I1
sV\u7559\u4e2a
p2425
I1
sV\u6cbb\u7597
p2426
I2
sV\u5e78\u798f
p2427
I4
sV\u503c\u5f97\u4e00\u63d0\u7684\u662f
p2428
I1
sV\u514b\u7acb
p2429
I2
sV\u53ef\u4ee5
p2430
I29
sV\u4e0a\u6d77
p2431
I1
sV\u4e00\u4e0b\u4e00\u4e0b
p2432
I1
sV7959022
p2433
I1
sV\u5947\u8ff9
p2434
I2
sV\u4e4b\u91cc
p2435
I1
sV\u7adf\u662f
p2436
I4
sV\u7206\u70b8
p2437
I2
sV\u65e0\u8d56
p2438
I2
sV\u5341\u5e74
p2439
I2
sV\u65f6
p2440
I4
sV\u7b80\u76f4
p2441
I1
sV\u8d4f\u91d1
p2442
I1
sV\u90a3\u4e2a
p2443
I18
sV\u665a\u5b89
p2444
I4
sV\u631a\u53cb
p2445
I1
sV\u8001\u53cb
p2446
I5
sV\u5984\u81ea\u5c0a\u5927
p2447
I1
sV\u4fe1\u606f
p2448
I2
sV\u600e
p2449
I1
sV\u73a9\u73a9
p2450
I2
sV\u9876\u4e00\u4e0b
p2451
I1
sV\u6a21\u6837
p2452
I8
sV\u1416
p2453
I2
sV\u4e0d\u80fd
p2454
I8
sV\u66b4\u5a07
p2455
I5
sV\u521a
p2456
I3
sV\u5b89\u5c0f\u6ee2
p2457
I1
sVps
p2458
I1
sV2F168652
p2459
I1
sV\u5bf9\u4e8e
p2460
I5
sV\u5e73\u9759
p2461
I2
sV\u58f0\u660e
p2462
I1
sV\u840c\u5c0f\u516e
p2463
I1
sVswf
p2464
I1
sV\u751f\u6daf
p2465
I1
sVbgcolor
p2466
I1
sV\u8721\u7b14
p2467
I14
sV\u8138
p2468
I6
sV\u522b\u95f9
p2469
I1
sV2363
p2470
I1
sV\u9648\u65e7
p2471
I2
sV\u597d\u770b
p2472
I1
sV\u63d0\u524d
p2473
I15
sV\u53eb\u5c0f\u82b3
p2474
I1
sV\u52cb\u7ae0
p2475
I1
sV\u5a07\u541f
p2476
I1
sV\u715e\u7b14
p2477
I2
sV\u5a1c\u5a1c
p2478
I1
sV\u5a4a
p2479
I16
sV\u6d82\u6389
p2480
I1
sV\u6253\u626b
p2481
I1
sV\u7ec4\u961f
p2482
I2
sV\u673a\u667a
p2483
I1
sV\u6211\u6765
p2484
I2
sV\u5766\u8361\u8361
p2485
I7
sV\u5904\u4e2a\u53cb
p2486
I2
sVmtitle
p2487
I5
sV\u82e5
p2488
I1
sV\u9a84\u50b2
p2489
I1
sV\u5e38\u89c1
p2490
I1
sV\u9632\u5fa1\u578b
p2491
I2
sV\u53ef
p2492
I18
sV\u306e
p2493
I186
sV\u9664\u975e
p2494
I3
sV\u767d\u8bdd
p2495
I2
sV\u5e72
p2496
I4
sV\u505c\u6b62
p2497
I1
sV\u60f9
p2498
I6
sV20150711
p2499
I9
sV\u4f0f\u7b14
p2500
I1
sV\u674e\u8d1d\u7433\u672c
p2501
I1
sVtitleRoyals
p2502
I1
sV\u5f88\u591a
p2503
I6
sV3054727801
p2504
I1
sV\u5230\u5904
p2505
I1
sV\u7559\u4f4f
p2506
I14
sV100YB
p2507
I1
sVdaladala
p2508
I30
sV\u5988
p2509
I11
sV\u65f6\u5dee
p2510
I1
sV\u5e16\u5b50
p2511
I12
sV\u7acb\u523b
p2512
I1
sV\u604b\u4eba
p2513
I1
sV\u8fc7\u7a0b
p2514
I1
sV\u4e94\u6b21
p2515
I1
sV\u5171
p2516
I1
sV\u751f\u6d3b
p2517
I47
sV\u6015\u6015
p2518
I1
sV\u4ece\u574f
p2519
I1
sV\u4eca\u5e74
p2520
I1
sV\u8aaa
p2521
I1
sV\u7ec4\u56e2
p2522
I4
sV\u5947\u4eba
p2523
I1
sV\u4eb2\u543b
p2524
I5
sV\u6a2a\u884c
p2525
I1
sV\u5f88\u5929
p2526
I1
sV\u840c\u6893
p2527
I1
sV\u5b8c\u6210
p2528
I1
sV\u6696\u5df7
p2529
I1
sV9
p2530
I12
sV\u6d3b
p2531
I2
sV\u6b32\u76d6\u5f25\u5f70
p2532
I1
sV\u653e\u70ae
p2533
I2
sV\u5783\u573e
p2534
I2
sV\u524d\u6765
p2535
I8
sV\u597d\u5f00\u5fc3
p2536
I1
sV\u5143
p2537
I1
sV\u5904\u53cb
p2538
I2
sV\u4e0d\u8ba9
p2539
I2
sV\u5f04\u61c2
p2540
I1
sV\u5b66\u597d
p2541
I1
sV\u62ff\u5230
p2542
I1
sV\u6bd4
p2543
I4
sV\u59b9\u513f
p2544
I11
sV\u4e0d\u987a\u5fc3
p2545
I1
sV\u53cd\u5bf9
p2546
I9
sV\u98de
p2547
I2
sV\u2461
p2548
I80
sV\u65e0
p2549
I12
sV\u672c\u6765
p2550
I3
sV\u611f\u817b
p2551
I1
sV\u5230\u5934
p2552
I1
sV\u52aa\u529b
p2553
I3
sV\u79cd\u79cd
p2554
I1
sV\u5389\u5bb3
p2555
I2
sV\u76d7\u7528
p2556
I2
sV549859
p2557
I1
sV\u5230\u65f6\u5019
p2558
I1
sV\u5973
p2559
I2
sV\u5728\u4e8e
p2560
I1
sV\u611f\u6168
p2561
I2
sV\u65e0\u8bed\u51dd
p2562
I1
sVencodeURIComponent
p2563
I66
sV\u4e00\u4e07\u4e2a
p2564
I2
sV549854
p2565
I1
sV\u6ce1\u6c34
p2566
I1
sV\u6253\u6797\u6f88
p2567
I1
sV\u591a\u4eba\u7528
p2568
I1
sV\u6536\u5230
p2569
I1
sV\u771f\u5b9e
p2570
I3
sVOAO
p2571
I1
sV264
p2572
I1
sV\u840c
p2573
I2
sV\u4f24\u5fc3
p2574
I2
sV\u540e\u5bab
p2575
I1
sV\u597d\u542c
p2576
I3
sV\u4ed6\u671d
p2577
I11
sV\u5b50\u8bed
p2578
I2
sV\u9648\u5955\u8fc5
p2579
I7
sV250
p2580
I1
sVattachimggroup
p2581
I34
sV\u8282\u54c0\u987a\u53d8
p2582
I1
sVonekey
p2583
I16
sV\u8ba9
p2584
I44
sV\u542c
p2585
I18
sV\u8861\u91cf
p2586
I1
sV\u545c
p2587
I2
sV\u6c38\u8fdc\u90fd\u662f
p2588
I1
sV\u963f\u91cc
p2589
I1
sVlocation
p2590
I31
sV\u65e7\u53cb
p2591
I6
sV\u7b49\u7ea7
p2592
I7
sV\u82cf\u6c90\u79cb
p2593
I1
sVbin
p2594
I16
sV\u559d\u8fc7
p2595
I1
sV\u3044
p2596
I2
sV\u6295\u5f71
p2597
I5
sV\u5c31\u591f
p2598
I1
sV1363668317
p2599
I1
sV\u4e50
p2600
I1
sV\u957f\u77ed
p2601
I1
sV\u6211\u4ea4
p2602
I1
sV\u521a\u56de\u6765
p2603
I1
sV\u65f6\u5e38
p2604
I1
sV\u515a
p2605
I1
sV\u4eba\u79f0
p2606
I4
sV\u5e74\u8001
p2607
I1
sV\u597d\u591a
p2608
I3
sV\u5199\u9519\u5b57
p2609
I1
sV\u6562
p2610
I3
sVd
p2611
I2
sV\u8f66
p2612
I1
sV\u9547\u697c
p2613
I1
sV\u4e0a\u8ff0
p2614
I1
sV\u539f\u540d
p2615
I3
sV\u8463\u4f73\u6770
p2616
I1
sV\u8f6e\u5ed3
p2617
I1
sV\u653e\u624b
p2618
I1
sV\u9648\u66ae
p2619
I2
sV\u8fd9\u513f
p2620
I3
sV\u8776
p2621
I11
sV\u522b\u4eba
p2622
I6
sV\u548b\u529e
p2623
I1
sV\u4f46\u662f
p2624
I9
sV\u51e0\u6b21
p2625
I2
sV\u8ba4\u7f6a
p2626
I1
sV\u8fd9\u91cc
p2627
I4
sV\u4eba\u592a
p2628
I1
sV\u4e0d\u6362
p2629
I1
sV\u672c\u840c
p2630
I2
sV\u6d88\u8017
p2631
I3
sV\u5417
p2632
I218
sV\u4ffa\u5f85\u4f1a
p2633
I2
sV\u600e\u6837
p2634
I2
sV\u8fc7\u5934
p2635
I1
sV\u7d2b\u8f66
p2636
I1
sV\u5b50\u5bab
p2637
I1
sVFL
p2638
I1
sV\u6c34\u8d34
p2639
I3
sV\u542c\u8bf4
p2640
I5
sV\u968f\u7740
p2641
I1
sV\u754c\u9650
p2642
I6
sV\u4e8c\u661f
p2643
I1
sV\u4e3b
p2644
I15
sV3Dyes
p2645
I9
sV\u4e0a\u4f20
p2646
I18
sV\u6454\u7834
p2647
I1
sVcgi
p2648
I32
sV\u4f53\u4f1a
p2649
I2
sV\u7b49
p2650
I13
sV\u79bb\u7ebf
p2651
I79
sV\u81ea\u5df1
p2652
I40
sV\u5e2e\u8fc7
p2653
I1
sV\u8bb8\u8bfa
p2654
I1
sV\u54fc\u5527
p2655
I2
sV\u5457
p2656
I3
sV\u4e0d\u53ca
p2657
I1
sV\u597d\u7b11
p2658
I1
sV\u5e94\u8be5
p2659
I2
sVn3Aka
p2660
I1
sV\u501f\u7740
p2661
I1
sV\u63d0\u9192
p2662
I1
sV\u5bcc\u5bb6
p2663
I1
sV\u8c03\u76ae
p2664
I1
sV\u5b64\u5fc3
p2665
I4
sV\u706f
p2666
I2
sV\u4e03\u70b9
p2667
I1
sV\u5df2
p2668
I4
sV\u559c\u6b22
p2669
I24
sV7596225
p2670
I1
sV\u76f8\u601d
p2671
I2
sV\u589e\u52a0
p2672
I4
sV73
p2673
I1
sV\u887f
p2674
I1
sV\u9700
p2675
I73
sV\u8f6f\u808b
p2676
I1
sV\u800c\u662f
p2677
I1
sV\u54fc\u54fc
p2678
I1
sV\u5f53\u7136
p2679
I2
sV\u4e24\u7801\u4e8b
p2680
I1
sV\u5973\u738b
p2681
I2
sV\u8b93
p2682
I1
sV\u7ea2\u8272
p2683
I1
sV\u65e0\u4eba
p2684
I11
sV\u501a
p2685
I1
sV\u4e00\u65f6
p2686
I1
sV\u4e4b\u6240\u4ee5
p2687
I1
sV\u06a1
p2688
I2
sV\u9879\u660a\u8981
p2689
I2
sV\u5e2e\u4e2a
p2690
I1
sV\u7ec6\u770b
p2691
I1
sVi
p2692
I12
sV\u88c5\u903c
p2693
I1
sV\u65cb\u5f8b
p2694
I1
sV\u6211\u73a9\u7f51
p2695
I1
sV\u9891\u7e41
p2696
I1
sV\u6614\u620f
p2697
I4
sV\u8bb0\u6027
p2698
I2
sV\u81ea\u5c0a
p2699
I1
sVfzl
p2700
I5
sV\u5012\u5e8f
p2701
I9
sV\u4f18\u79c0
p2702
I1
sV\u524d\u65e5
p2703
I1
sV\u7740
p2704
I23
sV\u4e9b
p2705
I1
sV\u4e24\u4e2a
p2706
I2
sV\u6210\u957f
p2707
I13
sV\u72ec\u4e00\u65e0\u4e8c
p2708
I2
sV\u826f\u5fc3
p2709
I1
sV\u7528\u6237
p2710
I1
sV\u5973\u53cb
p2711
I1
sV\u52a8\u52a8
p2712
I1
sV\u4eba\u7231
p2713
I1
sV\u65b0\u624b
p2714
I2
sV\u505a
p2715
I34
sVDg2NjgyMWQ2fDE0MzA2NTUxNTR8NTU1Njc2Og5MDY0MQ
p2716
I1
sV20150518
p2717
I1
sV\u52a8\u529b
p2718
I1
sV\u4efb\u4f55
p2719
I1
sV\u9648\u6c38\u79cb
p2720
I1
sV7596211
p2721
I1
sV\u54ed
p2722
I27
sV\u4e4b\u524d
p2723
I8
sV\u624b\u764c
p2724
I1
sV\u79bb\u5f00
p2725
I2
sV\u8f6f\u80f8
p2726
I52
sV\u6bd5\u4e1a\u5178\u793c
p2727
I1
sV\u88c2\u80ba
p2728
I5
sV\u6982\u7387
p2729
I1
sV\u4e8b\u4e00
p2730
I2
sV\u5c0f\u590f\u7396\u591c
p2731
I1
sV\u5168\u65b0
p2732
I2
sV\u610f
p2733
I1
sV\u626f\u5f00
p2734
I1
sV\u4e11
p2735
I10
sV\u52a8\u7269
p2736
I2
sV\u8299\u5a1c
p2737
I8
sV\u5219
p2738
I2
sV\u73af\u7ed5
p2739
I1
sV\u591f
p2740
I2
sV\u54b3
p2741
I2
sV\u5fc5\u73a9
p2742
I1
sV\u4ea6
p2743
I1
sV\u770b\u4e0d\u60ef
p2744
I2
sV\u8ba8
p2745
I1
sVTT
p2746
I5
sV\u5962\u671b
p2747
I1
sV\u6728\u9cd7
p2748
I1
sV\u5206
p2749
I1
sV\u5c34\u5c2c
p2750
I1
sV\u6d3b\u8dc3\u5ea6
p2751
I1
sV2851
p2752
I1
sV7k7kimg
p2753
I1
sV\u82e6\u4e8e
p2754
I1
sV\u5f2f\u8170
p2755
I8
sV\u7f16\u5c01
p2756
I1
sVAC
p2757
I1
sV\u8363\u8000
p2758
I1
sVdala
p2759
I33
sV\u9177
p2760
I1
sV\u77eb\u60c5
p2761
I1
sV\u6069\u7231
p2762
I1
sV\u4ef0\u671b
p2763
I1
sV\u652f\u6301
p2764
I6
sV\u62ce
p2765
I1
sV\u0e51
p2766
I6
sV7513700
p2767
I1
sV\u53d8
p2768
I3
sV1154792393
p2769
I4
sV\u4e2b\u9b1f
p2770
I1
sV2083134243
p2771
I1
sV\u6709\u6ca1\u6709
p2772
I1
sV\u51fa\u7089
p2773
I1
sV\u5962\u6c42
p2774
I1
sV\u8bd5\u8bd5
p2775
I2
sV\u4eba\u6015
p2776
I2
sV\u7ea6\u5b9a
p2777
I1
sV\u6211\u4f1a
p2778
I21
sV1729305595
p2779
I1
sV\u8fd9\u70b9
p2780
I1
sV\u665a\u597d
p2781
I3
sV\u9875
p2782
I5
sVAt
p2783
I1
sV\u9738\u9053
p2784
I23
sV\u6e29\u60c5
p2785
I4
sV\u4e50\u610f
p2786
I1
sV\u6c34\u6c60
p2787
I1
sV\u6211\u60f3
p2788
I1
sV\u5f85
p2789
I1
sV\u4e00\u5207
p2790
I1
sV\u9080\u8bf7\u51fd
p2791
I8
sV\u53bb\u5e74
p2792
I3
sV\u5c0f\u5fc3
p2793
I1
sV\u697c\u697c
p2794
I1
sV\u5149\u8292
p2795
I1
sV\u4e0d\u7528\u8c22
p2796
I1
sVgz
p2797
I1
sV\u7afa\u96e8\u751f
p2798
I8
sV\u53ea\u613f
p2799
I1
sV\u4efb\u6027
p2800
I84
sV\u6614
p2801
I1
sV\u9a97
p2802
I1
sV\u5916
p2803
I3
sV\u54e6\u54e6\u54e6
p2804
I1
sV\u5168\u653b\u7565
p2805
I1
sV\u4e61\u6751
p2806
I1
sV\u770b\u7740
p2807
I4
sV\u522b\u60e7
p2808
I1
sV549861
p2809
I1
sV\u6240\u4ee5
p2810
I7
sV\u505a\u68a6
p2811
I1
sV\u672a
p2812
I1
sV\u5956\u52b1
p2813
I3
sV\u987e\u53ca
p2814
I3
sV\u5634
p2815
I1
sV\u4f60\u522b
p2816
I84
sV\u558a\u505c
p2817
I1
sV\u633d\u6b4c
p2818
I4
sV\u5f00\u653e
p2819
I1
sV\u5e0c\u671b
p2820
I2
sV\u653e
p2821
I11
sV\u6743\u5f53
p2822
I1
sV\u901a\u878d
p2823
I1
sV\u9b42
p2824
I1
sV\u5a03\u5a03
p2825
I1
sV\u56de\u5f52
p2826
I3
sV\u5bb3\u6015
p2827
I1
sV\u5f53\u5e74
p2828
I1
sVP
p2829
I2
sV\u5237\u65b0
p2830
I2
sV\u6bdb\u4e8b
p2831
I1
sV\u5b89\u4e03
p2832
I3
sV\u672b\u8f9e
p2833
I8
sV\u8c03\u7814
p2834
I1
sV\u738b\u5983
p2835
I2
sV\u91cd\u65b0\u8ba4\u8bc6
p2836
I19
sVLAI
p2837
I1
sV\u62e7
p2838
I2
sV\u6001\u5ea6
p2839
I1
sV\u770b\u770b
p2840
I17
sV\u7cbe\u795e\u9886\u8896
p2841
I1
sV\u5708\u5708
p2842
I2
sV\u963f\u5f90
p2843
I3
sV\u7236\u5b50
p2844
I2
sV\u8bfb\u7740
p2845
I1
sV\u554a\u554a\u554a
p2846
I4
sV\u76f8\u4e92
p2847
I1
sV\u65f6\u5019
p2848
I12
sV\u63fd
p2849
I4
sVOVO
p2850
I2
sV\u6e14\u592b
p2851
I1
sV\u8165\u98ce\u8840\u96e8
p2852
I2
sV\u5207
p2853
I1
sV\u7687\u5b50
p2854
I2
sV\u5509
p2855
I1
sV\u5317\u6c90
p2856
I3
sV\u6bb5\u5b50
p2857
I1
sVinnerHTML
p2858
I1
sVtitleRomantic
p2859
I4
sV\u9632\u76d7
p2860
I1
sV\u4eab\u53d7
p2861
I1
sV\u5996
p2862
I2
sV\u957f\u5927
p2863
I1
sV\u901b
p2864
I3
sV7863574
p2865
I2
sV\u514d\u8d39
p2866
I2
sV\u6b64\u8d34
p2867
I1
sV3D
p2868
I2
sV\u8fc7\u4e0d\u53bb
p2869
I1
sV201405271549
p2870
I1
sV\u89e3\u4e4f
p2871
I1
sV\u53e6\u4e00\u65b9\u9762
p2872
I1
sV7636
p2873
I3
sV\u7948\u7977
p2874
I1
sV\u8349
p2875
I1
sV\u4fdd\u5b58
p2876
I1
sV\u5fae\u51c9\u513f
p2877
I3
sV\u5218\u80fd
p2878
I1
sV\u597d\u4e45\u6ca1
p2879
I2
sV\u603b
p2880
I4
sV\u957f\u5904
p2881
I1
sV\u611f\u8c22
p2882
I16
sV20150526
p2883
I4
sV\u5e26\u5230
p2884
I1
sV\u5411\u9633
p2885
I1
sV\u5927\u9a74
p2886
I11
sV\u8bf7
p2887
I2
sV\u54c8
p2888
I6
sV\u5e26\u523a
p2889
I3
sV\u7a9d\u5de2
p2890
I1
sV\u6551\u547d
p2891
I1
sV\u4f60\u4eec
p2892
I64
sV\u6216
p2893
I1
sV\u963f\u9f2c
p2894
I2
sV\u65e5\u4e45\u89c1\u4eba\u5fc3
p2895
I1
sVoS1Y7
p2896
I1
sV\u56de\u5fc6
p2897
I2
sV899267
p2898
I1
sV39
p2899
I6
sV38
p2900
I10
sV\u6267
p2901
I2
sV33
p2902
I25
sV32
p2903
I7
sV31
p2904
I12
sV30
p2905
I15
sV37
p2906
I11
sV36
p2907
I15
sV35
p2908
I11
sV34
p2909
I14
sV\u9171
p2910
I1
sV\u5473
p2911
I38
sV\u5177\u4f53
p2912
I1
sV\u73a9\u8fc7
p2913
I3
sV23149
p2914
I3
sV\u4e0d\u8d1f
p2915
I1
sV\u4ffa
p2916
I4
sV\u5feb\u8d5e
p2917
I1
sV\u660e\u767d
p2918
I2
sV22548
p2919
I67
sV\u5927\u5bb6
p2920
I4
sV\u6697\u5904
p2921
I1
sV\u5f04
p2922
I4
sV335
p2923
I1
sV\u6539\u6b63
p2924
I1
sV\u76f8\u4fe1
p2925
I1
sV331
p2926
I1
sV\u8840\u91cf
p2927
I1
sV\u56de\u5e16
p2928
I1
sV\u9a82
p2929
I3
sV\u7b97
p2930
I5
sVyabi
p2931
I1
sVFI
p2932
I1
sV\u6697\u591c
p2933
I1
sV\u529d
p2934
I1
sV\u731c
p2935
I4
sV\u58f0\u97f3
p2936
I4
sVfrom
p2937
I64
sV\u516d\u73ed
p2938
I2
sV\u64a9
p2939
I12
sV\u65f6\u5149
p2940
I24
sV\u840c\u840c
p2941
I7
sV\u6768\u5b89\u5c7f
p2942
I2
sV\u7167\u7247
p2943
I2
sV\u5728\u624b
p2944
I1
sV7641545
p2945
I1
sV\u5e7f\u544a
p2946
I1
sV\u5f97\u5230
p2947
I2
sV\u4e3a
p2948
I3
sV\u62bd
p2949
I1
sV\u5f88\u75db
p2950
I1
sV\u60a0\u60a0
p2951
I11
sV\u5fc3\u91cc
p2952
I5
sV\u9002\u5408
p2953
I3
sV\u731c\u731c
p2954
I4
sV\u7eb8\u6761
p2955
I1
sV\u6b4c
p2956
I15
sV\u6252
p2957
I30
sV\u54bf\u54bf\u5440\u5440
p2958
I1
sV\u653e\u9001
p2959
I1
sV\u8d25\u5bb6\u5b50
p2960
I1
sVok
p2961
I1
sVsoundFile
p2962
I1
sV\u540d\u4eba
p2963
I1
sV\u6960
p2964
I1
sV\u8fdf\u5230
p2965
I1
sV\u6625\u590f\u79cb\u51ac
p2966
I1
sV\u7b2c\u4e00\u53e5
p2967
I1
sV\u957f\u98ce
p2968
I4
sV\u70ae\u51fb
p2969
I2
sV\u8096\u827e
p2970
I2
sV\u8bed\u97f3
p2971
I11
sV\u5acc\u5c11
p2972
I1
sV\u8f6f\u4ef6
p2973
I1
sV\u73a9\u5fc3
p2974
I4
sV\u54c8\u54c8\u54c8
p2975
I23
sV\u62fd
p2976
I3
sV\u5b9a\u65f6
p2977
I1
sVTONGJI
p2978
I76
sV\u5e05
p2979
I8
sV\u9f84
p2980
I2
sV\u5708\u7a9d
p2981
I1
sV\u54e5\u54e5
p2982
I2
sV\u6d6a\u5b50
p2983
I2
sVYB
p2984
I3
sV\u4ea4\u6362
p2985
I56
sVhigh
p2986
I1
sV\u597d\u4e45\u4e0d\u89c1
p2987
I5
sV\u82b1\u513f
p2988
I1
sV\u7ade\u6280
p2989
I2
sV\u8c8c\u4f3c
p2990
I5
sV\u771f
p2991
I5
sV\u6df1\u7231
p2992
I1
sVtitleDistance
p2993
I1
sV\u76db\u5e74
p2994
I1
sV\u5411\u7740
p2995
I1
sV\u55f2
p2996
I1
sVattachment
p2997
I1
sV\u56db\u5927
p2998
I1
sV\u68a6\u53ca
p2999
I3
sV\u4eba
p3000
I63
sVdd
p3001
I2
sV\u79c0
p3002
I6
sV\u5979\u4eec
p3003
I2
sV26nocache
p3004
I9
sV\u5a07\u989c
p3005
I1
sV\u4e00\u53cc
p3006
I1
sV\u5b66\u957f
p3007
I4
sVQ
p3008
I19
sV\u4e43\u6eda
p3009
I1
sV\u5b57
p3010
I4
sV\u8d76
p3011
I1
sV890077
p3012
I1
sV\u751c\u5c0f\u7433
p3013
I5
sV\u53f0\u9636
p3014
I1
sV\u6367
p3015
I2
sV\u4e00\u53e5
p3016
I2
sV\u73a9\u7f51
p3017
I2
sV7505702
p3018
I3
sV\u65ad\u4e2a
p3019
I2
sV\u5f52
p3020
I4
sV\u53d1\u6cc4
p3021
I1
sV\u8c79
p3022
I2
sV\u817b
p3023
I1
sV\u771f\u6b63
p3024
I2
sV\u767d\u5934
p3025
I1
sV\u7279\u522b
p3026
I15
sV\u7f8e\u4e3d
p3027
I1
sV\u5c0f\u5b69
p3028
I1
sV\u793e\u4f1a
p3029
I2
sV\u5c0f\u5b66
p3030
I5
sV\u81ea\u7136
p3031
I1
sV7k7k
p3032
I9
sV\u83ab\u9053
p3033
I11
sV\u6797\u5915
p3034
I1
sV\u5582
p3035
I1
sV\u674e\u8d1d\u7433
p3036
I9
sV2333333333
p3037
I1
sV\u53ef\u6015
p3038
I3
sV138
p3039
I4
sV889447
p3040
I1
sV\u840c\u963f\u840c
p3041
I3
sV\u503c\u5f97
p3042
I1
sV\u4e0d\u8fc7
p3043
I9
sV\u522b\u6253\u6211
p3044
I2
sVjian
p3045
I1
sV\u53ea\u4f1a
p3046
I1
sV\u6302\u5ff5
p3047
I4
sV\u60f3\u5230
p3048
I1
sV\u7136\u800c
p3049
I2
sVzYlyN
p3050
I1
sV\u91d1\u751f
p3051
I2
sV\u62d6\u5730
p3052
I1
sV\u5230
p3053
I27
sV\u59b9\u7eb8
p3054
I1
sV\u539f\u672c
p3055
I2
sV\u7684\u8bdd
p3056
I4
sVls
p3057
I1
sV2015
p3058
I283
sV\u52a8\u5fc3
p3059
I1
sV2017
p3060
I6
sVlz
p3061
I6
sV\u4e0d\u8fdb
p3062
I1
sV\u5c0f\u5b50
p3063
I4
sV\u957f\u5bff
p3064
I1
sV\u60c5\u6b4c
p3065
I10
sV\u6ee5\u7528
p3066
I2
sV\u5927\u58f0
p3067
I2
sV\u4e0b\u4e2a
p3068
I1
sV\u554a
p3069
I36
sV\u677f\u51f3
p3070
I8
sV\u884c
p3071
I3
sV\u60ef\u7740
p3072
I1
sV\u90ed\u55d4
p3073
I3
sV\u7236\u5973
p3074
I2
sV\u6c34\u5427
p3075
I1
sV\u5fd9
p3076
I2
sV\u8352\u5510
p3077
I1
sV\u51dd
p3078
I6
sVtransparent
p3079
I1
sV\u54df
p3080
I4
sV\u975e
p3081
I1
sV\u4f60\u6c42
p3082
I1
sVallowNetworking
p3083
I2
sV\u8eba
p3084
I1
sV\u5413
p3085
I1
sVstatic
p3086
I1
sV\u66f4\u65b0
p3087
I3
sV\u788e\u7247
p3088
I5
sV\u4e0d\u518d
p3089
I2
sV\u67ef\u597d
p3090
I1
sV\u9080\u8bf7
p3091
I1
sV\u539f\u6765
p3092
I2
sV\u5b64\u5355
p3093
I1
sV\u6240\u6c42
p3094
I11
sV\u5403\u918b
p3095
I1
sV\u5199\u4e0b
p3096
I1
sV\u5982
p3097
I3
sV\u591a\u4e48
p3098
I1
sV\u60f3\u529e
p3099
I1
sV\u6ca1\u5173\u7cfb
p3100
I2
sV\u591a\u4e45
p3101
I4
sV\u558a
p3102
I1
sV700
p3103
I6
sV\u7f51\u7edc
p3104
I1
sV7513697
p3105
I1
sV\u4e00\u53a2\u60c5\u613f
p3106
I8
sV\u7b11\u9765
p3107
I21
sV7513691
p3108
I1
sV83
p3109
I4
sV86
p3110
I1
sV87
p3111
I1
sV84
p3112
I1
sV85
p3113
I2
sV\u6b21
p3114
I4
sV\u6e23
p3115
I4
sV7501807
p3116
I1
sV\u5b89\u6155\u5e0c
p3117
I1
sV'
p3118
I578
sV\u4f73\u7433
p3119
I4
sV\u4e0d\u4f4f
p3120
I1
sVpostToPengyou
p3121
I8
sV\u4eba\u5bb6
p3122
I1
sV\u4eba\u751f
p3123
I1
sV\u5149\u9634\u4f3c\u7bad
p3124
I1
sV\u4e00\u70b9
p3125
I4
sV\u8fc7\u7528
p3126
I2
sV\u6c90\u7b71
p3127
I4
sV\u4e3a\u4ec0\u4e48
p3128
I1
sV\u6216\u8005
p3129
I1
sV\u5047
p3130
I4
sVFFFFFF
p3131
I1
sVMaryy
p3132
I3
sV\u9b54\u9632
p3133
I2
sV8751
p3134
I1
sV\u60c5\u8bdd
p3135
I1
sV\u6240\u8c13
p3136
I2
sV\u61d2
p3137
I2
sV\u5175\u8352\u9a6c\u4e71
p3138
I1
sV\u6211\u613f
p3139
I1
sV\u5ac1\u7ed9
p3140
I3
sV\u525b
p3141
I2
sV\u56fd\u738b
p3142
I1
sV\u529b\u91cf
p3143
I2
sV\u94fe\u63a5
p3144
I1
sV\u4e4b\u7ffc
p3145
I1
sV20150628
p3146
I1
sV\u4eb2\u4eb2
p3147
I2
sV\u591a\u4e2a
p3148
I1
sV\u796d
p3149
I3
sV3D548769
p3150
I3
sV\u5b89\u6cab
p3151
I11
sV\u7b7e\u540d
p3152
I4
sV\u8bf6
p3153
I3
sV\u9999\u5473\u513f
p3154
I7
sV\u653e\u5047
p3155
I3
sV7641863
p3156
I1
sV\u4e0d\u4f1a
p3157
I21
sV\u602a
p3158
I25
sV\u9047\u89c1
p3159
I16
sV\u9187
p3160
I11
sV\u7206
p3161
I18
sV\u98a0\u5012\u9ed1\u767d
p3162
I4
sV\u5f7b\u5e95
p3163
I1
sV\u6536\u8d2d
p3164
I9
sV\u4e0e
p3165
I29
sV\u7329\u7329
p3166
I1
sV\u6478\u6478
p3167
I20
sV\u7ec6\u5fc3
p3168
I1
sV\u6495
p3169
I3
sV296
p3170
I1
sV\u53d1\u4e2a
p3171
I1
sVquality
p3172
I1
sV\u538b\u6839
p3173
I2
sV\u4e0b\u8f7d
p3174
I17
sV\u561e
p3175
I1
sV\u4e0d\u4ec5
p3176
I2
sV\u5949\u59bb
p3177
I8
sV\u53d1\u8a00
p3178
I2
sVYzy
p3179
I1
sV\u8bf4\u4e0d\u5b9a
p3180
I2
sV\u5e2e
p3181
I6
sV\u597d\u5904
p3182
I1
sV\u6597\u5634
p3183
I4
sV\u50ac\u8033
p3184
I15
sV\u73a9\u7535\u8111
p3185
I3
sV\u6454\u70c2
p3186
I1
sV\u5947\u602a
p3187
I2
sV658
p3188
I1
sV\u559c\u7231
p3189
I1
sV\u5ac1
p3190
I1
sV\u5fc3
p3191
I1
sV\u770b\u5427
p3192
I1
sV3Db8a97c9d3b0ff9a5
p3193
I3
sV\u597d\u597d
p3194
I2
sV\u522b\u6389
p3195
I1
sV\u79c1\u804a
p3196
I1
sV\u827e\u7279\u7206
p3197
I3
sV\u8350
p3198
I13
sV\u67d3
p3199
I11
sV\u817e\u8baf
p3200
I17
sV\u7ed9
p3201
I61
sV\u10dd
p3202
I1
sV\u82b1\u94b1
p3203
I2
sVKB
p3204
I38
sV\u4ee5\u540e
p3205
I1
sV\u5e18\u91cc
p3206
I11
sV\u957f\u9ad8
p3207
I8
sV\u5976\u5988
p3208
I1
sVNT
p3209
I2
sV\u4e43\u4eec
p3210
I1
sV\u4eba\u54c1
p3211
I2
sV\u6c42\u5934
p3212
I9
sVtitleArche
p3213
I1
sV\u9020\u5316
p3214
I1
sV\u4ed9\u513f
p3215
I3
sV\u6709\u597d\u6709\u574f
p3216
I1
sV\u80fd
p3217
I44
sV\u6765\u6e90
p3218
I1
sV\u5c06
p3219
I2
sV\u540e\u5929
p3220
I1
sV7501234
p3221
I1
sVfalse
p3222
I1
sV\u96e8\u513f
p3223
I1
sV7501231
p3224
I3
sV\u623f\u9876
p3225
I1
sV\u5165\u6b64\u95e8
p3226
I11
sV\u7ecf\u5e38
p3227
I2
sV\u8fdc\u8d85\u8fc7
p3228
I1
sV7501239
p3229
I2
sV\u4e8e
p3230
I245
sV\u6211
p3231
I644
sV\u6240\u8981
p3232
I2
sVhave
p3233
I1
sV\u4e00\u4e9b
p3234
I1
sV\u8fc7\u540e
p3235
I1
sV\u5df2\u7ecf
p3236
I2
sV\u751f
p3237
I3
sV\u5173\u673a
p3238
I3
sV\u597d\u8bc4
p3239
I2
sV\u65b0\u4eba
p3240
I7
sV\u5b69\u5b50
p3241
I1
sV\u6c34
p3242
I2
sV\u731c\u51fa
p3243
I1
sV\u7d2f
p3244
I1
sV\u4e9c
p3245
I1
sV\u7231
p3246
I27
sV\u4e2d\u95f4
p3247
I1
sV\u50b2
p3248
I2
sV\u5435
p3249
I1
sV\u4e39
p3250
I1
sVso
p3251
I1
sV\u68a6\u91cc
p3252
I2
sV26size
p3253
I9
sV\u81ea\u4f5c\u591a\u60c5
p3254
I2
sV\u5b64\u72ec
p3255
I5
sV03
p3256
I7
sV\u95ef\u8fc7
p3257
I1
sV\u5b50\u51cc\u513f
p3258
I2
sV\u4ece
p3259
I9
sV\u63d0
p3260
I1
sV01
p3261
I7
sV\u597d\u610f\u601d
p3262
I1
sV\u7ecf\u5178
p3263
I1
sV\u5fd8
p3264
I9
sV16614
p3265
I2
sV\u5206\u6570
p3266
I1
sV2333
p3267
I1
sV\u4e24\u628a
p3268
I1
sV04
p3269
I6
sV\u522b\u6324
p3270
I1
sVurl
p3271
I73
sV\u5927\u795e
p3272
I1
sV05
p3273
I8
sV\u6bc1\u706d\u6027
p3274
I1
sV\u4e0d\u4e0a
p3275
I2
sV\u5931\u5ba0
p3276
I6
sV\u5475
p3277
I2
sV\u95f4
p3278
I1
sV\u58a8
p3279
I4
sV\u807d
p3280
I1
sV\u5c31\u8bfb
p3281
I1
sV\u66fe
p3282
I3
sV\u767e\u5229
p3283
I1
sV\u6f47\u6d12
p3284
I2
sV\u898b\u9ebc
p3285
I1
sV\u6210\u4e3a
p3286
I1
sV\u8fd9\u53e5
p3287
I1
sV\u672c\u4e8b
p3288
I1
sV\u514b\u5236
p3289
I1
sV\u54ea\u4e2a
p3290
I2
sV\u7406\u5e94
p3291
I1
sV\u6253\u6b21
p3292
I1
sV\u53ef\u662f
p3293
I1
sV\u6251\u4e50\u5a25\u5b50
p3294
I1
sV\u966a\u4f34
p3295
I3
sV\u82f1\u4fca
p3296
I2
sV\u4e0d\u89c1
p3297
I2
sV\u771f\u4eba
p3298
I1
sV\u6d3d\u9152
p3299
I15
sV\u4f1a\u4ee4
p3300
I2
sV\u4e0a\u4f20\u4e0b\u8f7d
p3301
I21
sV520title
p3302
I7
sV\u672c\u8eab
p3303
I4
sV\u7afa\u96e8\u513f
p3304
I1
sV\u673a\u4f1a
p3305
I2
sV\u964c\u8def
p3306
I2
sV\u65b9\u6cd5
p3307
I1
sV\u6253\u6b7b
p3308
I1
sV\u7b54\u6848
p3309
I7
sV\u3048
p3310
I1
sV\u56de\u7b54
p3311
I1
sV\u600e\u62e5
p3312
I3
sV7596332
p3313
I2
sV\u53ea\u80fd
p3314
I1
sV\u6254
p3315
I2
sV\u70ed\u817e\u817e
p3316
I1
sV127
p3317
I1
sV\u53ef\u9000
p3318
I1
sV\u53d1\u73b0\u81ea\u5df1
p3319
I1
sV\u7b11\u54c8\u54c8
p3320
I1
sVqq
p3321
I24
sV\u6d17\u7897
p3322
I2
sV\u4ece\u6765\u4e0d
p3323
I3
sV\u4e0d\u8981
p3324
I9
sV\u4e94\u5e74\u7ea7
p3325
I1
sVqy
p3326
I1
sVwVTyu
p3327
I1
sV\u9a8c\u8bc1
p3328
I1
sV\u8981\u662f
p3329
I1
sV\u51fa\u53d1
p3330
I1
sV\u6ce8\u518c\u53f7
p3331
I1
sV\u7ae5\u771f
p3332
I1
sV\u5b8c\u6bd5
p3333
I1
sV\u5fc5\u987b
p3334
I3
sV\u914d\u89d2
p3335
I10
sV7861954
p3336
I1
sV\u5acc\u591a
p3337
I1
sV\u62ff
p3338
I3
sV\u4eba\u6765\u4eba\u5f80
p3339
I1
sV\u60c5\u4e66
p3340
I2
sV\u8001\u5a46
p3341
I5
sV\u624b\u6284\u62a5
p3342
I1
sV\u6ca1\u4eba\u5904
p3343
I1
sV\u4e8c
p3344
I1
sV\u7f51\u763e
p3345
I10
sV\u52b3\u52a8\u8282
p3346
I1
sV\u6294
p3347
I11
sV\u5149\u660e
p3348
I14
sV\u9898
p3349
I2
sV030
p3350
I2
sV\u571f\u4e00
p3351
I11
sV\u975e\u5e38
p3352
I2
sV\u5473\u513f
p3353
I4
sV36689
p3354
I11
sVsusususu
p3355
I1
sV\u809a\u5b50
p3356
I1
sV\u56de\u5bb6
p3357
I2
sV\u7531
p3358
I15
sV\u5927\u5e05
p3359
I1
sV\u5472
p3360
I2
sV\u6253\u8d25
p3361
I1
sV\u7a7a\u865a
p3362
I1
sV\u60c5\u4e0d\u654c
p3363
I1
sV\u821e\u6c60
p3364
I1
sV\u8d34\u6237
p3365
I1
sV\u8bba
p3366
I2
sV\u53ea\u8981
p3367
I5
sV\u6211\u58f9\u6a23
p3368
I1
sV\u5927\u5e08
p3369
I1
sV\u7ba1
p3370
I1
sV\u9b45
p3371
I1
sV\u5305\u62ec
p3372
I2
sV\u5149
p3373
I2
sV\u559c\u611f
p3374
I1
sV\u795d\u751f
p3375
I1
sV\u5173\u8054
p3376
I1
sVS
p3377
I1
sV\u4e00\u5ea7
p3378
I1
sV\u963f\u6cea
p3379
I1
sV\u76b1\u7709
p3380
I1
sV20349
p3381
I8
sV\u771f\u4e45
p3382
I1
sV7596287
p3383
I1
sV\u5c11\u5e74
p3384
I1
sV\u5212\u7834
p3385
I1
sV\u5f88\u611b\u73a9
p3386
I1
sV\u624b\u673a\u53f7
p3387
I1
sV\u5305\u542b
p3388
I1
sV\u60e8
p3389
I5
sV\u7cfb\u7edf
p3390
I1
sV\u8bc9\u8bf4
p3391
I1
sV\u65e0\u654c
p3392
I3
sV\u5438\u5f15\u529b
p3393
I1
sV\u77ee\u6cb9
p3394
I1
sV\u8fd8\u957f
p3395
I79
sV\u4e00\u76f4
p3396
I7
sV\u8ba4\u9519
p3397
I2
sV\u9876\u591a
p3398
I1
sV\u5907\u7528
p3399
I1
sV\u5e97\u94fa
p3400
I1
sV\u6069\u4e0d\u719f
p3401
I1
sV\u5c81
p3402
I3
sV\u70b9\u6069
p3403
I1
sV\u5bfc\u81f4
p3404
I1
sV\u8bf4\u8bdd
p3405
I5
sV\u6751\u91cc
p3406
I1
sV\u9152
p3407
I6
sV\u4e00\u770b
p3408
I1
sV\u4e00\u5708
p3409
I1
sV\u4e00\u8d70
p3410
I1
sV\u4e2d\u5348
p3411
I1
sV\u73a9\u5bb6
p3412
I7
sV\u62ff\u4e2a
p3413
I1
sV\u5f97
p3414
I16
sV\u4e8b\u8ff9
p3415
I1
sVcp
p3416
I1
sV\u52c7\u6562\u7684\u4eba
p3417
I1
sV3160
p3418
I3
sV600
p3419
I1
sV\u4ee5\u524d
p3420
I20
sV\u5927\u5927\u7684
p3421
I1
sV\u73a9\u5076
p3422
I1
sV\u98ce\u751f\u6c34
p3423
I1
sVQ1723547849
p3424
I6
sV\u661f\u9b42
p3425
I10
sV\u94b1
p3426
I1
sV\u6b3a\u8d1f
p3427
I1
sV\u68ee\u5c7f
p3428
I1
sV\u4e0d\u73a9\u7f51
p3429
I1
sV7641875
p3430
I1
sV\u5c0f\u5708\u5b50
p3431
I1
sV\u7b80\u4fbf
p3432
I1
sV\u76f8\u6bd4
p3433
I2
sV\u7f6e\u9876
p3434
I11
sV\u6709\u4e9b
p3435
I4
sV\u6ca1\u4e2a
p3436
I1
sV\u5446
p3437
I2
sV\u542c\u98ce
p3438
I37
sV\u74e6\u7279
p3439
I1
sV\u8fd9\u5a03
p3440
I1
sV\u4ecd
p3441
I1
sV\u6bcf
p3442
I2
sV\u51b0\u6dc7\u6dcb
p3443
I1
sV\u59b9\u59b9
p3444
I27
sV\u6709\u4e8b
p3445
I3
sV\u770b\u5230
p3446
I6
sV2015058
p3447
I12
sV\u840c\u52a8
p3448
I1
sV\u611f\u89c9
p3449
I4
sV\u67d0\u4e2a
p3450
I2
sV\u53d1\u8868
p3451
I231
sV\u75db
p3452
I22
sV2015057
p3453
I6
sV\u5e18\u5916
p3454
I11
sV2015051
p3455
I33
sV2015052
p3456
I73
sV2015053
p3457
I73
sVhdsa
p3458
I1
sV\u597d\u8fd0\u6c14
p3459
I2
sV\u6709\u4eba
p3460
I60
sV\u77ed\u4fe1
p3461
I1
sV\u82b1\u6ee1\u697c
p3462
I11
sV7596191
p3463
I1
sV\u4ecb\u7ecd
p3464
I2
sV\u96be\u53d7
p3465
I2
sV\u7cbe\u75b2\u529b\u5c3d
p3466
I1
sV\u517b\u8fc7
p3467
I1
sV\u5374
p3468
I7
sV\u8ff7
p3469
I1
sV\u6ca1\u9009\u4e0a
p3470
I1
sV0zD
p3471
I1
sV\u751f\u65e5
p3472
I12
sV8585
p3473
I2
sV\uc77c
p3474
I10
sV\u5c01
p3475
I2
sV\u97e9\u56fd
p3476
I1
sV\u7ec4\u7ec7
p3477
I1
sV\u5dee\u4e0d\u591a
p3478
I3
sVsite
p3479
I70
sV\u65f6\u95f4
p3480
I5
sV\u526f
p3481
I10
sV\u521d\u4e2d
p3482
I1
sV\u996e\u9152
p3483
I1
sV\u6eba\u7231
p3484
I1
sV\u5931\u5df1
p3485
I4
sV\u306f
p3486
I1
sV6557
p3487
I11
sV\u7f1d\u82b1
p3488
I2
sV\u5927\u9646
p3489
I2
sV\u73a9\u7b11
p3490
I1
sV\u4e0d\u884c
p3491
I1
sV\u7d2b
p3492
I1
sV\u5973\u5934
p3493
I1
sV\u6cf0\u5766
p3494
I1
sV\u6ce8\u610f
p3495
I1
sV7482324
p3496
I1
sV\u8d1f\u8d23
p3497
I1
sV\u52a9\u7406
p3498
I7
sV\u5e9f\u8bdd
p3499
I2
sV7501227
p3500
I3
sVhttp
p3501
I41
sV\u5973\u795e
p3502
I1
sV\u5747
p3503
I1
sV\u7687\u5e1d
p3504
I10
sV\u730e\u8c79
p3505
I10
sV7501253
p3506
I2
sVphp
p3507
I18
sV\u597d\u5feb
p3508
I1
sV\u8d44\u672c
p3509
I1
sV\u6ee2
p3510
I95
sV\u8bc6\u7834
p3511
I1
sV\u95ee\u95ee
p3512
I14
sV\u5934\u50cf
p3513
I10
sV\u6069
p3514
I10
sV\u67d0\u4e9b
p3515
I2
sV20150626
p3516
I7
sV20150627
p3517
I9
sV\u523a\u6fc0
p3518
I2
sV20150621
p3519
I1
sV\u8ddd\u79bb
p3520
I70
sV\u75f4\u60c5
p3521
I1
sV356
p3522
I1
sV\u5173
p3523
I1
sV\u6709\u4e2a
p3524
I3
sV\u5355\u5143
p3525
I1
sV\u7f81
p3526
I1
sV\u4e0d\u8bed
p3527
I1
sV\u4e8b
p3528
I4
sV\u55b5
p3529
I1
sV\u5df4\u7ed3
p3530
I1
sV\u83ab\u95ee
p3531
I11
sVBU
p3532
I1
sV\u70b9\u51fb
p3533
I1
sV\u5b57\u4f53
p3534
I1
sV\u56de\u590d
p3535
I84
sV\u6765\u8bf4
p3536
I2
sV\u591a
p3537
I26
sV\u67d2\u590f\u6765
p3538
I1
sVweb
p3539
I1
sV\u5c31\u5173
p3540
I3
sV\u957f\u5f97
p3541
I4
sV\u5168\u6c11
p3542
I1
sV\u56de\u5934
p3543
I1
sV\u8fd1\u671f
p3544
I1
sV20150530
p3545
I2
sV20150531
p3546
I15
sV\u505a\u4eba
p3547
I2
sV281
p3548
I1
sV\u66bb
p3549
I5
sV282
p3550
I1
sV\u80bf
p3551
I1
sV\u5929\u7406
p3552
I2
sV\u8fdc\u7a0b
p3553
I2
sV\u6839\u672c
p3554
I3
sV\u54c7
p3555
I1
sV\u539f\u56e0
p3556
I5
sV\u63d0\u793a
p3557
I1
sV\u813e\u6c14\u597d
p3558
I1
sV\u7cca\u5f97
p3559
I2
sV\u984d
p3560
I1
sV\u672a\u6ce8\u518c
p3561
I1
sV\u808c\u6ce8
p3562
I1
sV\u62ff\u8d70
p3563
I1
sV\u7761\u8fc7
p3564
I1
sV\u8650
p3565
I2
sVT
p3566
I17
sV\u59b9\u5b50
p3567
I5
sV\u5f81\u6218
p3568
I1
sV\u98ce\u66b4
p3569
I1
sV\u5b57\u4f1a
p3570
I1
sV\u9752\u6625
p3571
I1
sV\u4e00\u751f
p3572
I1
sV\u5572
p3573
I2
sV\u9a82\u4eba
p3574
I1
sVSQB
p3575
I1
sV\u6709\u8da3
p3576
I1
sVpage
p3577
I1
sV\u6ce1\u6ce1
p3578
I3
sV\u7b2c\u4e00\u540d
p3579
I1
sV\u8fd9\u79cd
p3580
I5
sV\u957f\u77ed\u53e5
p3581
I80
sV\u770b\u4e0d\u89c1
p3582
I1
sV\u4e0d\u6b62
p3583
I1
sV\u4e0a\u53f0
p3584
I1
sV\u4e0b
p3585
I81
sV\u7b97\u4e0d\u7b97
p3586
I4
sV\u56de\u9996
p3587
I11
sV111
p3588
I1
sV\u5c71\u76df\u6d77\u8a93
p3589
I1
sV\u561b
p3590
I16
sV\u53d8\u5316
p3591
I1
sV\u8111\u516c
p3592
I2
sV\u501f
p3593
I2
sV\u505a\u4e2a
p3594
I1
sV\u9752\u83dc
p3595
I1
sV\u521a\u6765
p3596
I3
sV\u8fdb\u5316\u8bba
p3597
I4
sV\u4ece\u800c
p3598
I1
sV\u6bdb\u8863
p3599
I2
sV\u70b9\u534a\u653e
p3600
I1
sV\u59d3\u540d
p3601
I1
sV\u660e\u661f
p3602
I3
sV\u61d2\u764c
p3603
I1
sV\u592a\u4e45
p3604
I1
sV\u5dee\u8bc4
p3605
I2
sV\u7f51\u540d
p3606
I85
sV\u5012\u9709
p3607
I1
sVce7fb946290e4109bdc9175108b6db3a
p3608
I10
sV\u5728\u610f
p3609
I1
sV\u4e16\u6001
p3610
I4
sV\u96be\u5173
p3611
I1
sV\u4e92\u76f8
p3612
I1
sVUw
p3613
I1
sV\u6253
p3614
I8
sV\u6697\u9ed1
p3615
I1
sV\u8bba\u575b
p3616
I1
sV\u9ad8
p3617
I7
sV\u6843\u674e\u6625\u98ce
p3618
I2
sV\u90a3\u65f6
p3619
I1
sV\u66b4\u51fb
p3620
I1
sV\u67d0
p3621
I3
sV\u96be\u9053
p3622
I1
sV\u8981\u64ad
p3623
I2
sV\u6218\u961f
p3624
I2
sVtitle1949
p3625
I1
sV\u5e74\u4ee3
p3626
I1
sV\u6ee4\u955c
p3627
I1
sV\u95f2
p3628
I1
sV\u5175
p3629
I1
sV\u571f\u8c6a
p3630
I1
sV\u141b
p3631
I2
sV\u604b\u4e0a
p3632
I1
sVtitle1941
p3633
I2
sV\u5f00\u53e3
p3634
I1
sV\u5f00
p3635
I1
sV\u5b83
p3636
I2
sV\u6e05\u98ce
p3637
I11
sV\u6700\u5e05
p3638
I1
sV\u5904
p3639
I13
sV\u8001\u73ed
p3640
I1
sV\u730e\u4eba
p3641
I3
sV\u4f5c\u8005
p3642
I87
sV\u9648\u5b66\u51ac
p3643
I2
sV\u5e16
p3644
I4
sV\u5feb\u901f
p3645
I3
sV\u5343\u91d1
p3646
I1
sV\u719f
p3647
I2
sV\u8000\u6b66\u626c\u5a01
p3648
I2
sV\u4f20
p3649
I1
sVpostToWb
p3650
I7
sV\u8c22
p3651
I2
sV\u6c34\u6676
p3652
I2
sV\u773c\u719f
p3653
I3
sV\u76f8\u89c1
p3654
I11
sV\u597d\u4eba
p3655
I1
sV\u5954\u8dd1
p3656
I6
sV\u5730
p3657
I1
sV\u800c\u4e14
p3658
I3
sV\u6709\u6cea
p3659
I1
sV\u6570\u5b66
p3660
I4
sV\u8d2d\u4e70
p3661
I1
sVvar
p3662
I185
sV549855
p3663
I1
sVfunction
p3664
I23
sV\u4e0d\u60f3
p3665
I13
sV\u5c0f\u65f6\u5019
p3666
I3
sV\u627f\u8bfa
p3667
I1
sV\u4e2a\u4eba
p3668
I2
sV30YB
p3669
I1
sV\u5317\u57ce
p3670
I6
sV\u697c\u4e3b
p3671
I26
sV\u6b21\u6570
p3672
I1
sVhh
p3673
I2
sVhi
p3674
I2
sV\u8d44\u6599
p3675
I13
sV\u7ad9
p3676
I1
sV12977
p3677
I2
sV\u6ee1\u9875
p3678
I1
sV\u4f60
p3679
I354
sV\u4eba\u50cf
p3680
I1
sV\u65b9\u5f0f
p3681
I1
sV\u65e7
p3682
I3
sV\u753b\u9762
p3683
I3
sV\u5feb
p3684
I41
sV\u5c0f\u4f19\u4f34
p3685
I3
sV\u6218\u573a
p3686
I1
sV\u54b3\u54b3
p3687
I1
sV\u5904\u597d
p3688
I1
sV\u9b54\u738b
p3689
I1
sV\u6df7
p3690
I1
sV\u96be\u542c
p3691
I1
sV\u773c\u91cc
p3692
I2
sV\u697c\u4e0a
p3693
I3
sV\u4e00\u5e74
p3694
I1
sV262
p3695
I1
sV\u627e
p3696
I3
sV\u5e01
p3697
I1
sV\u5f80
p3698
I3
sV\u5c82
p3699
I1
sV\u53f8\u9a6c
p3700
I2
sVpic
p3701
I22
sV\ucc0d
p3702
I10
sV2015069
p3703
I1
sV2015068
p3704
I5
sV\u80fd\u5426
p3705
I1
sV\u6015
p3706
I5
sV\u4e03\u79d2
p3707
I1
sV2015063
p3708
I6
sV2015062
p3709
I1
sV2015065
p3710
I2
sV2015064
p3711
I5
sV2015066
p3712
I16
sV\u60ef\u72af
p3713
I3
sV\u96e8\u751f
p3714
I13
sV48
p3715
I9
sV49
p3716
I4
sV46
p3717
I4
sV47
p3718
I9
sV44
p3719
I10
sV45
p3720
I5
sV42
p3721
I8
sV43
p3722
I3
sV40
p3723
I6
sV41
p3724
I4
sV\u56fd\u5e05
p3725
I5
sV\u5f88\u591a\u904d
p3726
I1
sV\u4e0d\u8f7b
p3727
I2
sV\u6cbb\u9ec4
p3728
I1
sVu
p3729
I43
sV\u5feb\u70b9
p3730
I3
sV\u5c45\u7136
p3731
I1
sV\u613f
p3732
I5
sV\u64e6
p3733
I1
sV\u9000\u8fc7
p3734
I2
sV\u53c8
p3735
I30
sV\u60c5\u4ec7
p3736
I11
sV\u6000\u5ff5
p3737
I1
sV\u5360
p3738
I1
sV\u53d8\u8272
p3739
I9
sV\u597d\u5de7
p3740
I1
sV\u5fcc\u8bb3
p3741
I1
sV\u518d\u89c1
p3742
I7
sV\u70b9\u5f00
p3743
I2
sV8000
p3744
I1
sV1621041095
p3745
I2
sV\u76f4\u6027\u5b50
p3746
I1
sV\u8461\u8404
p3747
I1
sV\u6495\u5f97
p3748
I1
sV\u6f5c\u80fd
p3749
I6
sV\u4ed6\u4eec
p3750
I2
sV\u591a\u6b21
p3751
I2
sV472
p3752
I11
sV\u4e0e\u4e16\u65e0\u4e89
p3753
I1
sV\u5973\u5b69
p3754
I1
sV\u52b3\u52a8
p3755
I18
sV\u6c34\u9762
p3756
I1
sV\u8d77
p3757
I7
sV\u4ef6
p3758
I1
sV\u795e\u7ecf\u75c5
p3759
I8
sV\u963f\u963f\u963f
p3760
I1
sV\u5269\u4e0b
p3761
I1
sV\u6bdb\u9a74
p3762
I1
sV\u817f
p3763
I1
ssS'_mapping'
p3764
(dp3765
g20
I727
sg21
I705
sg22
I3693
sg23
I112
sg24
I3579
sg25
I1754
sg26
I211
sg27
I3395
sg28
I3638
sg29
I1207
sg30
I3742
sg31
I1638
sg32
I2008
sg33
I1015
sg34
I3429
sg35
I2775
sg36
I1810
sg37
I2576
sg38
I793
sg39
I1930
sg40
I2462
sg41
I1510
sg42
I2980
sg43
I3733
sg44
I1583
sg45
I2759
sg46
I2583
sg47
I374
sg48
I3643
sg49
I1180
sg50
I1896
sg51
I3151
sg52
I505
sg53
I848
sg54
I2488
sg55
I883
sg56
I3036
sg57
I3248
sg58
I1241
sg59
I3668
sg60
I1522
sg61
I3723
sg62
I2470
sg63
I3539
sg64
I3271
sg65
I3225
sg66
I1246
sg67
I652
sg68
I3184
sg69
I2391
sg70
I1964
sg71
I1921
sg72
I1117
sg73
I2185
sg74
I398
sg75
I3601
sg76
I775
sg77
I3528
sg78
I3142
sg79
I11
sg80
I408
sg81
I2096
sg82
I1609
sg83
I3694
sg84
I703
sg85
I1326
sg86
I2920
sg87
I3231
sg88
I1488
sg89
I3081
sg90
I3517
sg91
I1178
sg92
I2482
sg93
I248
sg94
I96
sg95
I53
sg96
I1183
sg97
I2158
sg98
I951
sg99
I1785
sg100
I1972
sg101
I329
sg102
I1291
sg103
I2409
sg104
I2117
sg105
I3532
sg106
I545
sg107
I2124
sg108
I257
sg109
I1761
sg110
I932
sg111
I1123
sg112
I2729
sg113
I1212
sg114
I2357
sg115
I1422
sg116
I2810
sg117
I643
sg118
I3436
sg119
I1013
sg120
I1563
sg121
I2672
sg122
I680
sg123
I1746
sg124
I3585
sg125
I570
sg126
I2356
sg127
I1568
sg128
I2407
sg129
I916
sg130
I786
sg131
I3594
sg132
I1736
sg133
I1472
sg134
I1391
sg135
I2609
sg136
I513
sg137
I806
sg138
I2188
sg139
I1669
sg140
I751
sg141
I497
sg142
I350
sg143
I3197
sg144
I868
sg145
I3161
sg146
I534
sg147
I3370
sg148
I1891
sg149
I1333
sg150
I2807
sg151
I2654
sg152
I2148
sg153
I830
sg154
I803
sg155
I2616
sg156
I1157
sg157
I3501
sg158
I1454
sg159
I3090
sg160
I1643
sg161
I3019
sg162
I114
sg163
I2612
sg164
I2661
sg165
I861
sg166
I2219
sg167
I1671
sg168
I2682
sg169
I3487
sg170
I3010
sg171
I2427
sg172
I1054
sg173
I1251
sg174
I3176
sg175
I2798
sg176
I1332
sg177
I1532
sg178
I1078
sg179
I2572
sg180
I2827
sg181
I3030
sg182
I711
sg183
I1886
sg184
I3266
sg185
I3593
sg186
I2698
sg187
I1512
sg188
I1707
sg189
I3373
sg190
I2735
sg191
I758
sg192
I2505
sg193
I512
sg194
I1708
sg195
I1172
sg196
I47
sg197
I1561
sg198
I1417
sg199
I2048
sg200
I1376
sg201
I2099
sg202
I1752
sg203
I2481
sg204
I462
sg205
I2978
sg206
I1915
sg207
I457
sg208
I1528
sg209
I494
sg210
I1958
sg211
I2000
sg212
I2740
sg213
I3396
sg214
I1475
sg215
I3661
sg216
I960
sg217
I1509
sg218
I1639
sg219
I74
sg220
I914
sg221
I1581
sg222
I2028
sg223
I844
sg224
I1056
sg225
I902
sg226
I295
sg227
I656
sg228
I629
sg229
I1361
sg230
I2756
sg231
I1813
sg232
I1803
sg233
I1637
sg234
I2919
sg235
I915
sg236
I1927
sg237
I3177
sg238
I2364
sg239
I1681
sg240
I249
sg241
I2260
sg242
I413
sg243
I2957
sg244
I2791
sg245
I1148
sg246
I2106
sg247
I1073
sg248
I1518
sg249
I1050
sg250
I493
sg251
I272
sg252
I2843
sg253
I2665
sg254
I1087
sg255
I1514
sg256
I2639
sg257
I529
sg258
I60
sg259
I2286
sg260
I2702
sg261
I586
sg262
I3093
sg263
I217
sg264
I2204
sg265
I3403
sg266
I1751
sg267
I2784
sg268
I1368
sg269
I1057
sg270
I334
sg271
I2196
sg272
I458
sg273
I2310
sg274
I2294
sg275
I1492
sg276
I1285
sg277
I1002
sg278
I1982
sg279
I247
sg280
I569
sg281
I2183
sg282
I817
sg283
I2252
sg284
I2217
sg285
I3242
sg286
I2506
sg287
I1847
sg288
I3675
sg289
I2865
sg290
I2619
sg291
I3446
sg292
I2553
sg293
I1338
sg294
I1920
sg295
I1388
sg296
I2162
sg297
I539
sg298
I2787
sg299
I2673
sg300
I1026
sg301
I358
sg302
I695
sg303
I2922
sg304
I527
sg305
I105
sg306
I6
sg307
I1052
sg308
I2799
sg309
I354
sg310
I1760
sg311
I3659
sg312
I2173
sg313
I1268
sg314
I1372
sg315
I1926
sg316
I3235
sg317
I2520
sg318
I2041
sg319
I2974
sg320
I2245
sg321
I324
sg322
I197
sg323
I432
sg324
I43
sg325
I1147
sg326
I276
sg327
I1297
sg328
I797
sg329
I1466
sg330
I3534
sg331
I396
sg332
I1537
sg333
I602
sg334
I3709
sg335
I1478
sg336
I1006
sg337
I1099
sg338
I2614
sg339
I1946
sg340
I1650
sg341
I1881
sg342
I3279
sg343
I2442
sg344
I3234
sg345
I3744
sg346
I470
sg347
I1988
sg348
I2521
sg349
I1622
sg350
I42
sg351
I51
sg352
I1068
sg353
I3316
sg354
I976
sg355
I1837
sg356
I85
sg357
I3060
sg358
I191
sg359
I2907
sg360
I1604
sg361
I2921
sg362
I1168
sg363
I1481
sg364
I306
sg365
I148
sg366
I521
sg367
I1165
sg368
I2901
sg369
I2068
sg370
I1572
sg371
I977
sg372
I1652
sg373
I3170
sg374
I2051
sg375
I1723
sg13
I0
sg376
I970
sg377
I449
sg378
I571
sg379
I1739
sg380
I1412
sg381
I3587
sg382
I894
sg383
I89
sg384
I229
sg385
I2903
sg386
I1108
sg387
I2019
sg388
I1940
sg389
I3701
sg390
I2322
sg391
I3485
sg392
I1740
sg393
I1640
sg394
I3706
sg395
I1758
sg396
I1358
sg397
I3198
sg398
I1280
sg399
I3230
sg400
I117
sg401
I3562
sg402
I1698
sg403
I666
sg404
I2947
sg405
I1491
sg406
I3680
sg407
I2515
sg408
I1495
sg409
I612
sg410
I3398
sg411
I1889
sg412
I693
sg413
I863
sg414
I823
sg415
I1845
sg416
I3426
sg417
I1392
sg418
I1044
sg419
I941
sg420
I2524
sg421
I2169
sg422
I2528
sg423
I1197
sg424
I1937
sg425
I681
sg426
I1551
sg427
I68
sg428
I203
sg429
I15
sg430
I1088
sg431
I509
sg432
I761
sg433
I1912
sg434
I522
sg435
I2077
sg436
I526
sg437
I2128
sg438
I1218
sg439
I2250
sg440
I1627
sg441
I3720
sg442
I1016
sg443
I2766
sg444
I1508
sg445
I422
sg446
I3344
sg447
I3544
sg448
I2033
sg449
I1228
sg450
I1106
sg451
I3083
sg452
I1582
sg453
I619
sg454
I791
sg455
I1960
sg456
I3308
sg457
I100
sg458
I1799
sg459
I3147
sg460
I1919
sg461
I3009
sg462
I686
sg463
I3228
sg464
I3331
sg465
I3
sg466
I2406
sg467
I846
sg468
I2149
sg469
I2350
sg470
I2351
sg471
I3410
sg472
I2009
sg473
I1841
sg474
I2641
sg475
I2718
sg476
I2118
sg477
I511
sg478
I420
sg479
I1059
sg480
I3402
sg481
I3554
sg482
I567
sg483
I3550
sg484
I3006
sg485
I933
sg486
I3678
sg487
I3505
sg488
I1726
sg489
I3421
sg490
I2802
sg491
I2688
sg492
I713
sg493
I1990
sg494
I860
sg495
I20
sg496
I971
sg497
I1131
sg498
I2674
sg499
I504
sg500
I1994
sg501
I3195
sg502
I2696
sg503
I518
sg504
I3717
sg505
I3355
sg506
I2367
sg507
I2604
sg508
I987
sg509
I2803
sg510
I2946
sg511
I3406
sg512
I3568
sg513
I3209
sg514
I1346
sg515
I1163
sg516
I1035
sg517
I2284
sg518
I1795
sg519
I3496
sg520
I772
sg521
I2411
sg522
I945
sg523
I139
sg524
I2606
sg525
I3131
sg526
I3124
sg527
I1711
sg528
I3616
sg529
I3180
sg530
I2165
sg531
I3608
sg532
I404
sg533
I683
sg534
I1634
sg535
I1981
sg536
I1093
sg537
I974
sg538
I2940
sg539
I773
sg540
I91
sg541
I679
sg542
I486
sg543
I710
sg544
I2421
sg545
I184
sg546
I109
sg547
I1310
sg548
I1979
sg549
I2423
sg550
I355
sg551
I2452
sg552
I1252
sg553
I881
sg554
I1348
sg555
I3205
sg556
I2141
sg557
I1102
sg558
I1430
sg559
I2613
sg560
I2894
sg561
I3023
sg562
I188
sg563
I785
sg564
I2710
sg565
I2598
sg566
I2552
sg567
I1284
sg568
I3552
sg569
I1679
sg570
I3653
sg571
I2318
sg572
I1753
sg573
I2408
sg574
I3267
sg575
I1923
sg576
I52
sg577
I622
sg578
I3647
sg579
I895
sg580
I2898
sg581
I3233
sg582
I1265
sg583
I237
sg584
I3143
sg585
I2060
sg586
I3488
sg587
I2559
sg588
I2027
sg589
I3302
sg590
I1410
sg591
I2484
sg592
I2713
sg593
I741
sg594
I3105
sg595
I1125
sg596
I2135
sg597
I376
sg598
I2605
sg599
I1636
sg600
I2741
sg601
I3498
sg602
I1851
sg603
I2930
sg604
I2896
sg605
I1010
sg606
I2334
sg607
I465
sg608
I1234
sg609
I2868
sg610
I1498
sg611
I1154
sg612
I1543
sg613
I2783
sg614
I263
sg615
I1149
sg616
I2709
sg617
I3260
sg618
I2235
sg619
I724
sg620
I213
sg621
I1595
sg622
I125
sg623
I2201
sg624
I3581
sg625
I561
sg626
I1720
sg627
I3566
sg628
I2116
sg629
I1600
sg630
I2320
sg631
I371
sg632
I2437
sg633
I3673
sg634
I2342
sg635
I1302
sg636
I2084
sg637
I674
sg638
I3719
sg639
I332
sg640
I3110
sg641
I3681
sg642
I1843
sg643
I799
sg644
I2321
sg645
I2261
sg646
I418
sg647
I2358
sg648
I994
sg649
I1806
sg650
I2711
sg651
I1185
sg652
I696
sg653
I2050
sg654
I2400
sg655
I634
sg656
I2428
sg657
I1451
sg658
I2059
sg659
I3634
sg660
I2119
sg661
I2441
sg662
I2547
sg663
I243
sg664
I473
sg665
I2824
sg666
I1614
sg667
I2958
sg668
I2229
sg669
I2214
sg670
I3055
sg671
I553
sg672
I3320
sg673
I246
sg674
I2620
sg675
I580
sg676
I3699
sg677
I1315
sg678
I1678
sg679
I664
sg680
I1005
sg681
I828
sg682
I3127
sg683
I2902
sg684
I2601
sg685
I1374
sg686
I648
sg687
I1082
sg688
I3152
sg689
I1567
sg690
I3605
sg691
I1939
sg692
I851
sg693
I687
sg694
I22
sg695
I2916
sg696
I623
sg697
I3139
sg698
I2543
sg699
I1486
sg700
I2526
sg701
I8
sg702
I1620
sg703
I73
sg704
I2354
sg705
I597
sg706
I1413
sg707
I1800
sg708
I2848
sg709
I2820
sg710
I3299
sg711
I3509
sg712
I949
sg713
I1836
sg714
I3204
sg715
I3415
sg716
I1170
sg717
I1418
sg718
I2817
sg719
I1824
sg720
I1452
sg721
I2040
sg722
I1954
sg723
I316
sg724
I1198
sg725
I2822
sg726
I530
sg727
I301
sg728
I2806
sg729
I2092
sg730
I3522
sg731
I1300
sg732
I607
sg733
I79
sg734
I2550
sg735
I745
sg736
I2510
sg737
I1156
sg738
I1209
sg739
I3377
sg740
I605
sg741
I1499
sg742
I2247
sg743
I287
sg744
I825
sg745
I439
sg746
I975
sg747
I3108
sg748
I1516
sg749
I996
sg750
I3053
sg751
I3460
sg752
I294
sg753
I1124
sg754
I3339
sg755
I1645
sg756
I551
sg757
I336
sg758
I1164
sg759
I2133
sg760
I1072
sg761
I723
sg762
I1442
sg763
I2317
sg764
I1978
sg765
I1842
sg766
I759
sg767
I1468
sg768
I1767
sg769
I1307
sg770
I1916
sg771
I694
sg772
I138
sg773
I3731
sg774
I2098
sg775
I1869
sg776
I2564
sg777
I469
sg778
I2721
sg779
I2114
sg780
I3025
sg781
I2997
sg782
I133
sg783
I2377
sg784
I1311
sg785
I2422
sg786
I1075
sg787
I653
sg788
I436
sg789
I637
sg790
I2985
sg791
I2760
sg792
I1802
sg793
I3708
sg794
I3414
sg795
I3116
sg796
I321
sg797
I689
sg798
I2580
sg799
I1592
sg800
I2855
sg801
I3455
sg802
I1691
sg803
I1632
sg804
I1098
sg805
I1715
sg806
I750
sg807
I2540
sg808
I2312
sg809
I2684
sg810
I887
sg811
I1200
sg812
I1948
sg813
I180
sg814
I3725
sg815
I730
sg816
I2002
sg817
I1661
sg818
I636
sg819
I1860
sg820
I2977
sg821
I543
sg822
I3382
sg823
I789
sg824
I2398
sg825
I1018
sg826
I2971
sg827
I839
sg828
I1298
sg829
I2463
sg830
I965
sg831
I2904
sg832
I1706
sg833
I2622
sg834
I1872
sg835
I3243
sg836
I2349
sg837
I1599
sg838
I3646
sg839
I3607
sg840
I71
sg841
I2800
sg842
I2182
sg843
I3278
sg844
I2080
sg845
I2273
sg846
I3399
sg847
I2707
sg848
I1647
sg849
I3222
sg850
I993
sg851
I183
sg852
I882
sg853
I455
sg854
I1408
sg855
I2445
sg856
I2659
sg857
I2857
sg858
I1179
sg859
I763
sg860
I2012
sg861
I2832
sg862
I908
sg863
I3376
sg864
I2972
sg865
I1731
sg866
I66
sg867
I108
sg868
I1204
sg869
I1519
sg870
I3101
sg871
I410
sg872
I2014
sg873
I2167
sg874
I1941
sg875
I1737
sg876
I2750
sg877
I2494
sg878
I2891
sg879
I1463
sg880
I1277
sg881
I667
sg882
I3652
sg883
I889
sg884
I2374
sg885
I1554
sg886
I2200
sg887
I2887
sg888
I3075
sg889
I3416
sg890
I3531
sg891
I2399
sg892
I3196
sg893
I1856
sg894
I3201
sg895
I1854
sg896
I2790
sg897
I2648
sg898
I299
sg899
I481
sg900
I3512
sg901
I1967
sg902
I48
sg903
I130
sg904
I1308
sg905
I1046
sg906
I476
sg907
I1403
sg908
I2242
sg909
I2932
sg910
I2642
sg911
I70
sg912
I1135
sg913
I36
sg914
I955
sg915
I2966
sg916
I3503
sg917
I1415
sg918
I3057
sg919
I3422
sg920
I3294
sg921
I178
sg922
I2221
sg923
I3598
sg924
I1205
sg925
I1547
sg926
I2211
sg927
I2545
sg928
I2637
sg929
I1427
sg930
I1479
sg931
I2131
sg932
I2897
sg933
I3229
sg934
I2617
sg935
I3612
sg936
I928
sg937
I929
sg938
I2558
sg939
I3109
sg940
I3533
sg941
I431
sg942
I2663
sg943
I2004
sg944
I963
sg945
I3333
sg946
I1122
sg947
I1553
sg948
I3450
sg949
I277
sg950
I2003
sg951
I2178
sg952
I3297
sg953
I1642
sg954
I3441
sg955
I2497
sg956
I847
sg957
I2776
sg958
I165
sg959
I1904
sg960
I2291
sg961
I3629
sg962
I2100
sg963
I626
sg964
I348
sg965
I1000
sg966
I1155
sg967
I2926
sg968
I146
sg969
I3729
sg970
I1416
sg971
I3337
sg972
I1153
sg973
I499
sg974
I2451
sg975
I2948
sg976
I748
sg977
I456
sg978
I749
sg979
I2585
sg980
I1527
sg981
I101
sg982
I1025
sg983
I3597
sg984
I218
sg985
I3641
sg986
I2979
sg987
I783
sg988
I2839
sg989
I1094
sg990
I2032
sg991
I3021
sg992
I1607
sg993
I2782
sg994
I948
sg995
I2137
sg996
I1141
sg997
I1699
sg998
I898
sg999
I320
sg1000
I312
sg1001
I3283
sg1002
I1952
sg1003
I2680
sg1004
I1208
sg1005
I1580
sg1006
I2319
sg1007
I1812
sg1008
I1055
sg1009
I1275
sg1010
I3107
sg1011
I3578
sg1012
I640
sg1013
I920
sg1014
I262
sg1015
I1501
sg1016
I2584
sg1017
I3062
sg1018
I2127
sg1019
I1045
sg1020
I1764
sg1021
I1525
sg1022
I2923
sg1023
I2295
sg1024
I2557
sg1025
I2599
sg1026
I2043
sg1027
I768
sg1028
I3567
sg1029
I1114
sg1030
I967
sg1031
I1762
sg1032
I2975
sg1033
I3052
sg1034
I2525
sg1035
I2627
sg1036
I44
sg1037
I2064
sg1038
I2052
sg1039
I1956
sg1040
I2112
sg1041
I2256
sg1042
I1771
sg1043
I3603
sg1044
I2031
sg1045
I2727
sg1046
I3159
sg1047
I1507
sg1048
I2838
sg1049
I421
sg1050
I1414
sg1051
I1826
sg1052
I54
sg1053
I2875
sg1054
I591
sg1055
I1484
sg1056
I2537
sg1057
I2212
sg1058
I877
sg1059
I564
sg1060
I2936
sg1061
I3301
sg1062
I3064
sg1063
I1596
sg1064
I1299
sg1065
I140
sg1066
I2963
sg1067
I1630
sg1068
I346
sg1069
I874
sg1070
I235
sg1071
I952
sg1072
I1206
sg1073
I2454
sg1074
I2474
sg1075
I2205
sg1076
I520
sg1077
I850
sg1078
I2404
sg1079
I323
sg1080
I1913
sg1081
I2772
sg1082
I2503
sg1083
I829
sg1084
I3662
sg1085
I1864
sg1086
I1716
sg1087
I3310
sg1088
I1949
sg1089
I1626
sg1090
I1105
sg1091
I935
sg1092
I2984
sg1093
I2562
sg1094
I1464
sg1095
I293
sg1096
I3099
sg1097
I3350
sg1098
I2380
sg1099
I1768
sg1100
I3696
sg1101
I423
sg1102
I1725
sg1103
I283
sg1104
I1074
sg1105
I808
sg1106
I177
sg1107
I632
sg1108
I487
sg1109
I3322
sg1110
I3439
sg1111
I3390
sg1112
I3660
sg1113
I557
sg1114
I2055
sg1115
I2691
sg1116
I2473
sg1117
I3383
sg1118
I271
sg1119
I1790
sg1120
I3388
sg1121
I1545
sg1122
I2812
sg1123
I697
sg1124
I3181
sg1125
I2925
sg1126
I3032
sg1127
I2850
sg1128
I1520
sg1129
I1096
sg1130
I1042
sg1131
I517
sg1132
I1233
sg1133
I2239
sg1134
I872
sg1135
I2686
sg1136
I1041
sg1137
I972
sg1138
I3392
sg1139
I3186
sg1140
I3375
sg1141
I3250
sg1142
I2292
sg1143
I1150
sg1144
I959
sg1145
I2861
sg1146
I507
sg1147
I2283
sg1148
I968
sg1149
I234
sg1150
I395
sg1151
I245
sg1152
I2960
sg1153
I3353
sg1154
I2893
sg1155
I2025
sg1156
I924
sg1157
I445
sg1158
I2575
sg1159
I2388
sg1160
I2477
sg1161
I2495
sg1162
I1870
sg1163
I2560
sg1164
I3071
sg1165
I1360
sg1166
I1243
sg1167
I2538
sg1168
I3689
sg1169
I1011
sg1170
I2529
sg1171
I870
sg1172
I3352
sg1173
I98
sg1174
I3315
sg1175
I531
sg1176
I2808
sg1177
I2769
sg1178
I2161
sg1179
I2813
sg1180
I1381
sg1181
I3096
sg1182
I1871
sg1183
I3477
sg1184
I3048
sg1185
I691
sg1186
I3705
sg1187
I3674
sg1188
I992
sg1189
I1903
sg1190
I268
sg1191
I1021
sg1192
I1897
sg1193
I2968
sg1194
I2814
sg1195
I3654
sg1196
I1907
sg1197
I2851
sg1198
I94
sg1199
I2608
sg1200
I447
sg1201
I3510
sg1202
I3145
sg1203
I1585
sg1204
I2293
sg1205
I1684
sg1206
I2150
sg1207
I3270
sg1208
I1283
sg1209
I742
sg1210
I549
sg1211
I2042
sg1212
I1552
sg1213
I2362
sg1214
I934
sg1215
I131
sg1216
I2186
sg1217
I3665
sg1218
I1878
sg1219
I2170
sg1220
I3216
sg1221
I2522
sg1222
I3128
sg1223
I1091
sg1224
I1786
sg1225
I388
sg1226
I3210
sg1227
I2717
sg1228
I2834
sg1229
I2753
sg1230
I1712
sg1231
I3187
sg1232
I583
sg1233
I2726
sg1234
I1216
sg1235
I208
sg1236
I1047
sg1237
I57
sg1238
I3683
sg1239
I3572
sg1240
I83
sg1241
I2152
sg1242
I2765
sg1243
I2913
sg1244
I682
sg1245
I3583
sg1246
I102
sg1247
I2662
sg1248
I2079
sg1249
I774
sg1250
I2412
sg1251
I556
sg1252
I2346
sg1253
I3640
sg1254
I2461
sg1255
I3599
sg1256
I1194
sg1257
I2755
sg1258
I1140
sg1259
I3013
sg1260
I1433
sg1261
I500
sg1262
I2478
sg1263
I3657
sg1264
I3354
sg1265
I3524
sg1266
I3727
sg1267
I2527
sg1268
I1019
sg1269
I2054
sg1270
I3560
sg1271
I1559
sg1272
I1336
sg1273
I1266
sg1274
I2125
sg1275
I2277
sg1276
I3624
sg1277
I3129
sg1278
I3312
sg1279
I953
sg1280
I1051
sg1281
I533
sg1282
I2366
sg1283
I3359
sg1284
I2359
sg1285
I2512
sg1286
I1548
sg1287
I3135
sg1288
I588
sg1289
I1399
sg1290
I3011
sg1291
I124
sg1292
I3280
sg1293
I3319
sg1294
I1485
sg1295
I756
sg1296
I219
sg1297
I3655
sg1298
I2874
sg1299
I897
sg1300
I2226
sg1301
I2918
sg1302
I3165
sg1303
I2202
sg1304
I471
sg1305
I2387
sg1306
I3604
sg1307
I419
sg1308
I1794
sg1309
I2934
sg1310
I1022
sg1311
I2725
sg1312
I669
sg1313
I1989
sg1314
I2744
sg1315
I1749
sg1316
I552
sg1317
I1603
sg1318
I2107
sg1319
I116
sg1320
I3134
sg1321
I3237
sg1322
I1318
sg1323
I2751
sg1324
I269
sg1325
I1500
sg1326
I2385
sg1327
I901
sg1328
I737
sg1329
I1262
sg1330
I1963
sg1331
I495
sg1332
I2087
sg1333
I2005
sg1334
I2549
sg1335
I107
sg1336
I884
sg1337
I678
sg1338
I90
sg1339
I205
sg1340
I555
sg1341
I259
sg1342
I251
sg1343
I106
sg1344
I514
sg1345
I142
sg1346
I2701
sg1347
I2045
sg1348
I606
sg1349
I3085
sg1350
I604
sg1351
I1080
sg1352
I1873
sg1353
I2018
sg1354
I3716
sg1355
I3118
sg1356
I2818
sg1357
I1914
sg1358
I601
sg1359
I1523
sg1360
I821
sg1361
I1303
sg1362
I1996
sg1363
I1316
sg1364
I2180
sg1365
I2951
sg1366
I167
sg1367
I1648
sg1368
I958
sg1369
I3332
sg1370
I2561
sg1371
I1288
sg1372
I2335
sg1373
I2071
sg1374
I2046
sg1375
I328
sg1376
I946
sg1377
I1895
sg1378
I3017
sg1379
I1432
sg1380
I2840
sg1381
I3481
sg1382
I2504
sg1383
I2386
sg1384
I3525
sg1385
I2970
sg1386
I1107
sg1387
I2738
sg1388
I200
sg1389
I2955
sg1390
I866
sg1391
I628
sg1392
I1687
sg1393
I343
sg1394
I2594
sg1395
I2551
sg1396
I366
sg1397
I2236
sg1398
I3564
sg1399
I3327
sg1400
I1101
sg1401
I900
sg1402
I1629
sg1403
I1411
sg1404
I394
sg1405
I973
sg1406
I1590
sg1407
I1061
sg1408
I2771
sg1409
I135
sg1410
I228
sg1411
I2789
sg1412
I2999
sg1413
I3045
sg1414
I1744
sg1415
I3637
sg1416
I2013
sg1417
I1382
sg1418
I2990
sg1419
I3100
sg1420
I1611
sg1421
I1735
sg1422
I2486
sg1423
I2697
sg1424
I1555
sg1425
I2603
sg1426
I30
sg1427
I1584
sg1428
I879
sg1429
I1272
sg1430
I2884
sg1431
I1578
sg1432
I141
sg1433
I153
sg1434
I2062
sg1435
I1223
sg1436
I1126
sg1437
I1943
sg1438
I2737
sg1439
I95
sg1440
I2110
sg1441
I1456
sg1442
I1440
sg1443
I876
sg1444
I2233
sg1445
I957
sg1446
I2826
sg1447
I2363
sg1448
I2634
sg1449
I726
sg1450
I3695
sg1451
I1407
sg1452
I2508
sg1453
I3667
sg1454
I1621
sg1455
I314
sg1456
I716
sg1457
I981
sg1458
I1267
sg1459
I878
sg1460
I738
sg1461
I1957
sg1462
I2719
sg1463
I2344
sg1464
I2950
sg1465
I1095
sg1466
I260
sg1467
I2514
sg1468
I1670
sg1469
I1290
sg1470
I496
sg1471
I3160
sg1472
I3651
sg1473
I3262
sg1474
I1783
sg1475
I880
sg1476
I780
sg1477
I3349
sg1478
I3527
sg1479
I3475
sg1480
I843
sg1481
I807
sg1482
I111
sg1483
I2405
sg1484
I3435
sg1485
I2681
sg1486
I771
sg1487
I17
sg1488
I1244
sg1489
I1877
sg1490
I3034
sg1491
I1734
sg1492
I2770
sg1493
I1750
sg1494
I1893
sg1495
I446
sg1496
I1818
sg1497
I384
sg1498
I3293
sg1499
I3072
sg1500
I781
sg1501
I3041
sg1502
I441
sg1503
I3012
sg1504
I195
sg1505
I280
sg1506
I779
sg1507
I1226
sg1508
I362
sg1509
I1692
sg1510
I3682
sg1511
I3666
sg1512
I2835
sg1513
I424
sg1514
I615
sg1515
I193
sg1516
I2272
sg1517
I2890
sg1518
I3325
sg1519
I63
sg1520
I2095
sg1521
I2991
sg1522
I788
sg1523
I784
sg1524
I1686
sg1525
I2268
sg1526
I2992
sg1527
I765
sg1528
I1835
sg1529
I1225
sg1530
I3247
sg1531
I2225
sg1532
I3400
sg1533
I3478
sg1534
I826
sg1535
I1133
sg1536
I2758
sg1537
I2615
sg1538
I2456
sg1539
I1789
sg1540
I1363
sg1541
I2390
sg1542
I2332
sg1543
I453
sg1544
I1502
sg1545
I3384
sg1546
I816
sg1547
I598
sg1548
I978
sg1549
I3589
sg1550
I454
sg1551
I3590
sg1552
I2237
sg1553
I2517
sg1554
I3117
sg1555
I403
sg1556
I2347
sg1557
I2258
sg1558
I1695
sg1559
I1441
sg1560
I3520
sg1561
I3621
sg1562
I2432
sg1563
I2859
sg1564
I3031
sg1565
I1798
sg1566
I3672
sg1567
I3323
sg1568
I3033
sg1569
I2496
sg1570
I3467
sg1571
I137
sg1572
I3466
sg1573
I25
sg1574
I129
sg1575
I3424
sg1576
I2397
sg1577
I3171
sg1578
I1132
sg1579
I528
sg1580
I2223
sg1581
I3518
sg1582
I3718
sg1583
I2578
sg1584
I1653
sg1585
I2102
sg1586
I2539
sg1587
I1355
sg1588
I2532
sg1589
I3084
sg1590
I373
sg1591
I2872
sg1592
I3224
sg1593
I842
sg1594
I2967
sg1595
I3345
sg1596
I2414
sg1597
I2917
sg1598
I222
sg1599
I616
sg1600
I2177
sg1601
I1420
sg1602
I1213
sg1603
I1231
sg1604
I2022
sg1605
I1193
sg1606
I2831
sg1607
I2500
sg1608
I1111
sg1609
I2266
sg1610
I778
sg1611
I1190
sg1612
I3335
sg1613
I3162
sg1614
I317
sg1615
I3669
sg1616
I2693
sg1617
I1301
sg1618
I2895
sg1619
I3418
sg1620
I1086
sg1621
I1062
sg1622
I2081
sg1623
I492
sg1624
I417
sg1625
I754
sg1626
I1276
sg1627
I3447
sg1628
I3469
sg1629
I1951
sg1630
I1701
sg1631
I590
sg1632
I2218
sg1633
I2431
sg1634
I1474
sg1635
I365
sg1636
I578
sg1637
I3519
sg1638
I2289
sg1639
I3136
sg1640
I2879
sg1641
I888
sg1642
I3087
sg1643
I1340
sg1644
I837
sg1645
I3536
sg1646
I3290
sg1647
I3054
sg1648
I2419
sg1649
I712
sg1650
I563
sg1651
I1031
sg1652
I3449
sg1653
I954
sg1654
I3391
sg1655
I255
sg1656
I535
sg1657
I450
sg1658
I1654
sg1659
I2995
sg1660
I2797
sg1661
I278
sg1662
I2618
sg1663
I2987
sg1664
I2246
sg1665
I790
sg1666
I782
sg1667
I2788
sg1668
I1263
sg1669
I3078
sg1670
I2024
sg1671
I2542
sg1672
I3622
sg1673
I1747
sg1674
I1573
sg1675
I339
sg1676
I3448
sg1677
I998
sg1678
I524
sg1679
I1214
sg1680
I459
sg1681
I2276
sg1682
I671
sg1683
I2581
sg1684
I190
sg1685
I3379
sg1686
I363
sg1687
I266
sg1688
I2430
sg1689
I2976
sg1690
I482
sg1691
I2410
sg1692
I558
sg1693
I3232
sg1694
I688
sg1695
I519
sg1696
I3141
sg1697
I173
sg1698
I3020
sg1699
I1805
sg1700
I461
sg1701
I2472
sg1702
I1984
sg1703
I3027
sg1704
I3140
sg1705
I3038
sg1706
I2892
sg1707
I3732
sg1708
I430
sg1709
I1067
sg1710
I2006
sg1711
I3044
sg1712
I1294
sg1713
I467
sg1714
I3690
sg1715
I986
sg1716
I3644
sg1717
I1390
sg1718
I2269
sg1719
I2353
sg1720
I1770
sg1721
I468
sg1722
I3663
sg1723
I2676
sg1724
I1293
sg1725
I158
sg1726
I1375
sg1727
I548
sg1728
I508
sg1729
I1511
sg1730
I1666
sg1731
I2069
sg1732
I795
sg1733
I2908
sg1734
I3365
sg1735
I3255
sg1736
I3385
sg1737
I2511
sg1738
I2
sg1739
I740
sg1740
I3440
sg1741
I2206
sg1742
I3687
sg1743
I2952
sg1744
I3542
sg1745
I3094
sg1746
I1536
sg1747
I2017
sg1748
I1229
sg1749
I2864
sg1750
I676
sg1751
I1188
sg1752
I164
sg1753
I911
sg1754
I3318
sg1755
I1925
sg1756
I714
sg1757
I1928
sg1758
I2969
sg1759
I1242
sg1760
I3086
sg1761
I3676
sg1762
I2444
sg1763
I1703
sg1764
I1103
sg1765
I635
sg1766
I627
sg1767
I2120
sg1768
I2881
sg1769
I1741
sg1770
I1264
sg1771
I1796
sg1772
I2582
sg1773
I3499
sg1774
I1383
sg1775
I2085
sg1776
I80
sg1777
I1235
sg1778
I1765
sg1779
I174
sg1780
I204
sg1781
I3688
sg1782
I1838
sg1783
I2937
sg1784
I3738
sg1785
I1898
sg1786
I2607
sg1787
I3282
sg1788
I2588
sg1789
I2208
sg1790
I937
sg1791
I1807
sg1792
I562
sg1793
I1359
sg1794
I1727
sg1795
I1269
sg1796
I2888
sg1797
I3284
sg1798
I3736
sg1799
I1227
sg1800
I3679
sg1801
I907
sg1802
I856
sg1803
I1465
sg1804
I2544
sg1805
I2307
sg1806
I810
sg1807
I690
sg1808
I3168
sg1809
I2232
sg1810
I1729
sg1811
I2796
sg1812
I592
sg1813
I3246
sg1814
I2468
sg1815
I3412
sg1816
I925
sg1817
I2650
sg1818
I88
sg1819
I3443
sg1820
I1704
sg1821
I1236
sg1822
I1254
sg1823
I1309
sg1824
I1473
sg1825
I2869
sg1826
I3437
sg1827
I1992
sg1828
I274
sg1829
I576
sg1830
I1663
sg1831
I647
sg1832
I3677
sg1833
I2448
sg1834
I3507
sg1835
I170
sg1836
I1027
sg1837
I1540
sg1838
I325
sg1839
I2670
sg1840
I21
sg1841
I2811
sg1842
I1423
sg1843
I231
sg1844
I3311
sg1845
I3289
sg1846
I1186
sg1847
I1827
sg1848
I1240
sg1849
I2988
sg1850
I757
sg1851
I3004
sg1852
I72
sg1853
I979
sg1854
I633
sg1855
I1458
sg1856
I2376
sg1857
I1945
sg1858
I2142
sg1859
I381
sg1860
I1866
sg1861
I2692
sg1862
I595
sg1863
I1911
sg1864
I1357
sg1865
I2841
sg1866
I2355
sg1867
I1882
sg1868
I1476
sg1869
I290
sg1870
I3132
sg1871
I2330
sg1872
I2853
sg1873
I2631
sg1874
I2679
sg1875
I1822
sg1876
I2804
sg1877
I1113
sg1878
I2914
sg1879
I1480
sg1880
I838
sg1881
I770
sg1882
I3103
sg1883
I818
sg1884
I1506
sg1885
I3633
sg1886
I1815
sg1887
I704
sg1888
I3364
sg1889
I322
sg1890
I873
sg1891
I3330
sg1892
I2257
sg1893
I1924
sg1894
I2636
sg1895
I1446
sg1896
I281
sg1897
I134
sg1898
I87
sg1899
I875
sg1900
I3615
sg1901
I2643
sg1902
I3543
sg1903
I1664
sg1904
I515
sg1905
I2020
sg1906
I702
sg1907
I326
sg1908
I199
sg1909
I3192
sg1910
I3565
sg1911
I2805
sg1912
I3275
sg1913
I2287
sg1914
I2076
sg1915
I1175
sg1916
I2871
sg1917
I3393
sg1918
I2306
sg1919
I2961
sg1920
I1628
sg1921
I4
sg1922
I1788
sg1923
I2113
sg1924
I663
sg1925
I3065
sg1926
I1890
sg1927
I225
sg1928
I2345
sg1929
I437
sg1930
I2331
sg1931
I1589
sg1932
I1562
sg1933
I1530
sg1934
I2653
sg1935
I2425
sg1936
I2326
sg1937
I3016
sg1938
I3378
sg1939
I2611
sg1940
I3207
sg1941
I3617
sg1942
I2254
sg1943
I2044
sg1944
I2996
sg1945
I2821
sg1946
I1597
sg1947
I3462
sg1948
I3097
sg1949
I3628
sg1950
I725
sg1951
I1593
sg1952
I2928
sg1953
I1901
sg1954
I2502
sg1955
I3360
sg1956
I719
sg1957
I1436
sg1958
I3645
sg1959
I1910
sg1960
I386
sg1961
I2860
sg1962
I297
sg1963
I2644
sg1964
I2795
sg1965
I385
sg1966
I1521
sg1967
I186
sg1968
I2189
sg1969
I3703
sg1970
I369
sg1971
I113
sg1972
I452
sg1973
I282
sg1974
I414
sg1975
I510
sg1976
I3306
sg1977
I1733
sg1978
I541
sg1979
I2626
sg1980
I2556
sg1981
I2459
sg1982
I896
sg1983
I1329
sg1984
I3018
sg1985
I480
sg1986
I3249
sg1987
I3444
sg1988
I1349
sg1989
I1352
sg1990
I1605
sg1991
I2982
sg1992
I3137
sg1993
I3305
sg1994
I1116
sg1995
I76
sg1996
I2341
sg1997
I224
sg1998
I1090
sg1999
I3303
sg2000
I2369
sg2001
I904
sg2002
I442
sg2003
I3067
sg2004
I1081
sg2005
I3056
sg2006
I717
sg2007
I3347
sg2008
I298
sg2009
I2275
sg2010
I1152
sg2011
I1271
sg2012
I594
sg2013
I1221
sg2014
I337
sg2015
I3268
sg2016
I2026
sg2017
I1817
sg2018
I2571
sg2019
I1710
sg2020
I254
sg2021
I3726
sg2022
I171
sg2023
I2490
sg2024
I1659
sg2025
I3625
sg2026
I2372
sg2027
I3183
sg2028
I913
sg2029
I2426
sg2030
I618
sg2031
I1121
sg2032
I1449
sg2033
I2994
sg2034
I3361
sg2035
I3555
sg2036
I1879
sg2037
I3039
sg2038
I1969
sg2039
I631
sg2040
I2632
sg2041
I2417
sg2042
I670
sg2043
I3511
sg2044
I1343
sg2045
I506
sg2046
I668
sg2047
I999
sg2048
I488
sg2049
I658
sg2050
I1224
sg2051
I347
sg2052
I672
sg2053
I855
sg2054
I3203
sg2055
I1219
sg2056
I3024
sg2057
I187
sg2058
I3070
sg2059
I2089
sg2060
I1953
sg2061
I1012
sg2062
I767
sg2063
I2176
sg2064
I2375
sg2065
I617
sg2066
I2274
sg2067
I1134
sg2068
I1763
sg2069
I1182
sg2070
I1602
sg2071
I3000
sg2072
I1909
sg2073
I2625
sg2074
I2638
sg2075
I1935
sg2076
I3059
sg2077
I927
sg2078
I3563
sg2079
I3489
sg2080
I2825
sg2081
I2348
sg2082
I368
sg2083
I1608
sg2084
I3473
sg2085
I2746
sg2086
I1396
sg2087
I351
sg2088
I1444
sg2089
I2101
sg2090
I1776
sg2091
I3068
sg2092
I1145
sg2093
I2088
sg2094
I2628
sg2095
I9
sg2096
I1071
sg2097
I2655
sg2098
I3557
sg2099
I1857
sg2100
I579
sg2101
I2546
sg2102
I338
sg2103
I593
sg2104
I743
sg2105
I1820
sg2106
I2656
sg2107
I1237
sg2108
I409
sg2109
I215
sg2110
I1662
sg2111
I1682
sg2112
I2671
sg2113
I3408
sg2114
I252
sg2115
I1230
sg2116
I503
sg2117
I501
sg2118
I18
sg2119
I502
sg2120
I127
sg2121
I805
sg2122
I3445
sg2123
I3423
sg2124
I871
sg2125
I544
sg2126
I310
sg2127
I890
sg2128
I3220
sg2129
I407
sg2130
I136
sg2131
I3334
sg2132
I214
sg2133
I3264
sg2134
I240
sg2135
I2830
sg2136
I3241
sg2137
I1419
sg2138
I1222
sg2139
I356
sg2140
I1944
sg2141
I1356
sg2142
I610
sg2143
I1558
sg2144
I1162
sg2145
I2066
sg2146
I3029
sg2147
I318
sg2148
I387
sg2149
I3573
sg2150
I2752
sg2151
I2313
sg2152
I86
sg2153
I2443
sg2154
I3269
sg2155
I3670
sg2156
I2338
sg2157
I3558
sg2158
I630
sg2159
I2339
sg2160
I2010
sg2161
I2282
sg2162
I3648
sg2163
I3106
sg2164
I1321
sg2165
I2480
sg2166
I2792
sg2167
I961
sg2168
I3245
sg2169
I3523
sg2170
I1471
sg2171
I2244
sg2172
I2567
sg2173
I2288
sg2174
I3500
sg2175
I393
sg2176
I1641
sg2177
I2393
sg2178
I1167
sg2179
I1564
sg2180
I2569
sg2181
I2210
sg2182
I2900
sg2183
I3082
sg2184
I645
sg2185
I1700
sg2186
I574
sg2187
I1693
sg2188
I1867
sg2189
I2166
sg2190
I16
sg2191
I2104
sg2192
I401
sg2193
I2281
sg2194
I2498
sg2195
I1367
sg2196
I2704
sg2197
I264
sg2198
I3088
sg2199
I989
sg2200
I2156
sg2201
I2645
sg2202
I540
sg2203
I2153
sg2204
I400
sg2205
I3430
sg2206
I2880
sg2207
I2801
sg2208
I3710
sg2209
I1541
sg2210
I2965
sg2211
I1880
sg2212
I3504
sg2213
I1270
sg2214
I2476
sg2215
I1281
sg2216
I2073
sg2217
I1173
sg2218
I1697
sg2219
I3513
sg2220
I2491
sg2221
I1556
sg2222
I491
sg2223
I3015
sg2224
I1974
sg2225
I1730
sg2226
I620
sg2227
I525
sg2228
I3329
sg2229
I3465
sg2230
I1017
sg2231
I3574
sg2232
I2091
sg2233
I1032
sg2234
I3369
sg2235
I644
sg2236
I2394
sg2237
I1773
sg2238
I2762
sg2239
I1676
sg2240
I1859
sg2241
I226
sg2242
I375
sg2243
I2304
sg2244
I3497
sg2245
I2714
sg2246
I1324
sg2247
I2143
sg2248
I2323
sg2249
I2695
sg2250
I2469
sg2251
I919
sg2252
I2378
sg2253
I2870
sg2254
I1482
sg2255
I2939
sg2256
I2499
sg2257
I284
sg2258
I3005
sg2259
I1483
sg2260
I2833
sg2261
I477
sg2262
I2121
sg2263
I2438
sg2264
I2440
sg2265
I1489
sg2266
I2047
sg2267
I2337
sg2268
I412
sg2269
I3092
sg2270
I40
sg2271
I3671
sg2272
I565
sg2273
I201
sg2274
I2749
sg2275
I736
sg2276
I2596
sg2277
I1161
sg2278
I192
sg2279
I2941
sg2280
I833
sg2281
I3451
sg2282
I2998
sg2283
I3739
sg2284
I1814
sg2285
I584
sg2286
I1136
sg2287
I1557
sg2288
I2108
sg2289
I2570
sg2290
I3211
sg2291
I3300
sg2292
I3409
sg2293
I3314
sg2294
I3182
sg2295
I2685
sg2296
I3530
sg2297
I1808
sg2298
I1428
sg2299
I931
sg2300
I2309
sg2301
I1782
sg2302
I1146
sg2303
I769
sg2304
I1354
sg2305
I1655
sg2306
I1742
sg2307
I330
sg2308
I3685
sg2309
I1577
sg2310
I862
sg2311
I1184
sg2312
I3479
sg2313
I2224
sg2314
I1774
sg2315
I2910
sg2316
I3046
sg2317
I1830
sg2318
I747
sg2319
I964
sg2320
I286
sg2321
I1143
sg2322
I2172
sg2323
I1677
sg2324
I1217
sg2325
I2074
sg2326
I819
sg2327
I1279
sg2328
I852
sg2329
I899
sg2330
I2382
sg2331
I1594
sg2332
I550
sg2333
I1169
sg2334
I3317
sg2335
I938
sg2336
I2767
sg2337
I1215
sg2338
I2501
sg2339
I75
sg2340
I3172
sg2341
I1189
sg2342
I2392
sg2343
I3618
sg2344
I115
sg2345
I3457
sg2346
I3368
sg2347
I2361
sg2348
I3042
sg2349
I746
sg2350
I3691
sg2351
I149
sg2352
I464
sg2353
I150
sg2354
I2072
sg2355
I798
sg2356
I1494
sg2357
I144
sg2358
I1576
sg2359
I3001
sg2360
I869
sg2361
I2915
sg2362
I2732
sg2363
I2889
sg2364
I2959
sg2365
I1459
sg2366
I3711
sg2367
I699
sg2368
I3259
sg2369
I1211
sg2370
I1959
sg2371
I2823
sg2372
I3253
sg2373
I2962
sg2374
I1644
sg2375
I1778
sg2376
I1020
sg2377
I906
sg2378
I2053
sg2379
I3189
sg2380
I37
sg2381
I909
sg2382
I2056
sg2383
I3166
sg2384
I472
sg2385
I2993
sg2386
I3292
sg2387
I3047
sg2388
I1029
sg2389
I3506
sg2390
I2475
sg2391
I1115
sg2392
I1962
sg2393
I49
sg2394
I834
sg2395
I2037
sg2396
I428
sg2397
I3468
sg2398
I342
sg2399
I181
sg2400
I3606
sg2401
I573
sg2402
I1317
sg2403
I700
sg2404
I1505
sg2405
I812
sg2406
I1457
sg2407
I2724
sg2408
I864
sg2409
I3715
sg2410
I3582
sg2411
I1365
sg2412
I1947
sg2413
I1757
sg2414
I1745
sg2415
I2383
sg2416
I2139
sg2417
I1831
sg2418
I46
sg2419
I1120
sg2420
I1892
sg2421
I3073
sg2422
I1811
sg2423
I2629
sg2424
I2280
sg2425
I3351
sg2426
I2652
sg2427
I1380
sg2428
I1821
sg2429
I2297
sg2430
I735
sg2431
I3427
sg2432
I3483
sg2433
I2389
sg2434
I840
sg2435
I918
sg2436
I2171
sg2437
I1858
sg2438
I1470
sg2439
I1295
sg2440
I484
sg2441
I3576
sg2442
I2742
sg2443
I58
sg2444
I1258
sg2445
I1112
sg2446
I1083
sg2447
I2203
sg2448
I2678
sg2449
I3356
sg2450
I2248
sg2451
I1617
sg2452
I800
sg2453
I3121
sg2454
I1759
sg2455
I707
sg2456
I1371
sg2457
I1899
sg2458
I1467
sg2459
I3526
sg2460
I2049
sg2461
I2446
sg2462
I3313
sg2463
I1987
sg2464
I3545
sg2465
I1809
sg2466
I3548
sg2467
I1191
sg2468
I600
sg2469
I2828
sg2470
I345
sg2471
I1438
sg2472
I2863
sg2473
I1323
sg2474
I3256
sg2475
I3202
sg2476
I1587
sg2477
I3340
sg2478
I1158
sg2479
I152
sg2480
I3580
sg2481
I1579
sg2482
I1853
sg2483
I3452
sg2484
I2509
sg2485
I1772
sg2486
I1665
sg2487
I1651
sg2488
I3442
sg2489
I3432
sg2490
I1724
sg2491
I2649
sg2492
I466
sg2493
I82
sg2494
I1631
sg2495
I1400
sg2496
I50
sg2497
I435
sg2498
I1118
sg2499
I859
sg2500
I2487
sg2501
I3486
sg2502
I3743
sg2503
I126
sg2504
I3405
sg2505
I3721
sg2506
I956
sg2507
I3200
sg2508
I474
sg2509
I1347
sg2510
I1425
sg2511
I538
sg2512
I2279
sg2513
I1657
sg2514
I1398
sg2515
I2761
sg2516
I2610
sg2517
I706
sg2518
I3728
sg2519
I3167
sg2520
I3425
sg2521
I2555
sg2522
I2067
sg2523
I1689
sg2524
I1137
sg2525
I865
sg2526
I3724
sg2527
I3407
sg2528
I2748
sg2529
I1004
sg2530
I267
sg2531
I2195
sg2532
I3740
sg2533
I2207
sg2534
I2109
sg2535
I1450
sg2536
I1993
sg2537
I3272
sg2538
I613
sg2539
I3461
sg2540
I3153
sg2541
I3215
sg2542
I1816
sg2543
I1550
sg2544
I1040
sg2545
I1397
sg2546
I397
sg2547
I1775
sg2548
I104
sg2549
I273
sg2550
I2829
sg2551
I1176
sg2552
I2305
sg2553
I2586
sg2554
I1529
sg2555
I1933
sg2556
I2193
sg2557
I2105
sg2558
I3304
sg2559
I1702
sg2560
I1875
sg2561
I2786
sg2562
I1829
sg2563
I159
sg2564
I1181
sg2565
I1717
sg2566
I2240
sg2567
I729
sg2568
I2548
sg2569
I3635
sg2570
I2111
sg2571
I804
sg2572
I1965
sg2573
I2198
sg2574
I554
sg2575
I1973
sg2576
I2780
sg2577
I380
sg2578
I969
sg2579
I910
sg2580
I3480
sg2581
I327
sg2582
I3626
sg2583
I241
sg2584
I434
sg2585
I827
sg2586
I2191
sg2587
I353
sg2588
I1936
sg2589
I2779
sg2590
I223
sg2591
I1238
sg2592
I2667
sg2593
I2483
sg2594
I239
sg2595
I3076
sg2596
I2154
sg2597
I1635
sg2598
I2249
sg2599
I3741
sg2600
I1394
sg2601
I2190
sg2602
I1673
sg2603
I2845
sg2604
I2519
sg2605
I2379
sg2606
I1289
sg2607
I2384
sg2608
I2285
sg2609
I3342
sg2610
I2192
sg2611
I537
sg2612
I1823
sg2613
I2785
sg2614
I2720
sg2615
I1256
sg2616
I1894
sg2617
I2862
sg2618
I1378
sg2619
I1668
sg2620
I2413
sg2621
I1039
sg2622
I118
sg2623
I2325
sg2624
I1065
sg2625
I990
sg2626
I3149
sg2627
I1110
sg2628
I2290
sg2629
I2781
sg2630
I2899
sg2631
I2706
sg2632
I97
sg2633
I1961
sg2634
I3217
sg2635
I2467
sg2636
I1849
sg2637
I3490
sg2638
I3516
sg2639
I1743
sg2640
I995
sg2641
I2669
sg2642
I1534
sg2643
I2764
sg2644
I649
sg2645
I1571
sg2646
I794
sg2647
I3584
sg2648
I238
sg2649
I1104
sg2650
I516
sg2651
I38
sg2652
I169
sg2653
I121
sg2654
I1497
sg2655
I1625
sg2656
I940
sg2657
I2264
sg2658
I559
sg2659
I2241
sg2660
I2160
sg2661
I1709
sg2662
I168
sg2663
I3163
sg2664
I3080
sg2665
I230
sg2666
I1296
sg2667
I349
sg2668
I2774
sg2669
I172
sg2670
I3493
sg2671
I3298
sg2672
I2690
sg2673
I2301
sg2674
I3707
sg2675
I344
sg2676
I815
sg2677
I3372
sg2678
I3158
sg2679
I3214
sg2680
I3287
sg2681
I2157
sg2682
I2554
sg2683
I438
sg2684
I532
sg2685
I997
sg2686
I1828
sg2687
I1526
sg2688
I722
sg2689
I1613
sg2690
I308
sg2691
I2866
sg2692
I603
sg2693
I3722
sg2694
I2924
sg2695
I1259
sg2696
I2458
sg2697
I1469
sg2698
I1362
sg2699
I3431
sg2700
I744
sg2701
I279
sg2702
I3173
sg2703
I2757
sg2704
I7
sg2705
I2082
sg2706
I2228
sg2707
I1139
sg2708
I2130
sg2709
I3191
sg2710
I2773
sg2711
I3623
sg2712
I2471
sg2713
I3371
sg2714
I2592
sg2715
I227
sg2716
I2733
sg2717
I3238
sg2718
I677
sg2719
I1779
sg2720
I2011
sg2721
I3735
sg2722
I122
sg2723
I641
sg2724
I2882
sg2725
I289
sg2726
I392
sg2727
I2327
sg2728
I2402
sg2729
I2849
sg2730
I3397
sg2731
I2847
sg2732
I2574
sg2733
I3133
sg2734
I1335
sg2735
I734
sg2736
I3157
sg2737
I1429
sg2738
I2658
sg2739
I2001
sg2740
I2416
sg2741
I2927
sg2742
I2743
sg2743
I3358
sg2744
I811
sg2745
I1719
sg2746
I151
sg2747
I3494
sg2748
I1060
sg2749
I2181
sg2750
I2140
sg2751
I3257
sg2752
I3120
sg2753
I3535
sg2754
I1393
sg2755
I547
sg2756
I2021
sg2757
I3515
sg2758
I2715
sg2759
I475
sg2760
I2516
sg2761
I3614
sg2762
I2856
sg2763
I1379
sg2764
I1986
sg2765
I3227
sg2766
I813
sg2767
I2836
sg2768
I1320
sg2769
I1364
sg2770
I1968
sg2771
I2336
sg2772
I2122
sg2773
I2597
sg2774
I3459
sg2775
I1755
sg2776
I2227
sg2777
I2867
sg2778
I1
sg2779
I3613
sg2780
I1195
sg2781
I1616
sg2782
I820
sg2783
I3309
sg2784
I78
sg2785
I1024
sg2786
I61
sg2787
I3571
sg2788
I3664
sg2789
I1732
sg2790
I2668
sg2791
I1453
sg2792
I2063
sg2793
I1128
sg2794
I2036
sg2795
I1435
sg2796
I2435
sg2797
I3537
sg2798
I1247
sg2799
I3464
sg2800
I69
sg2801
I3244
sg2802
I1623
sg2803
I2687
sg2804
I3380
sg2805
I3148
sg2806
I3295
sg2807
I2138
sg2808
I2368
sg2809
I3357
sg2810
I1437
sg2811
I665
sg2812
I2531
sg2813
I1863
sg2814
I2449
sg2815
I3079
sg2816
I65
sg2817
I2429
sg2818
I1023
sg2819
I2573
sg2820
I3114
sg2821
I792
sg2822
I307
sg2823
I625
sg2824
I2155
sg2825
I1674
sg2826
I589
sg2827
I2844
sg2828
I1675
sg2829
I292
sg2830
I333
sg2831
I2929
sg2832
I3095
sg2833
I29
sg2834
I1991
sg2835
I1330
sg2836
I198
sg2837
I1801
sg2838
I1906
sg2839
I2267
sg2840
I923
sg2841
I2906
sg2842
I2034
sg2843
I1043
sg2844
I2296
sg2845
I3631
sg2846
I1287
sg2847
I2646
sg2848
I120
sg2849
I1305
sg2850
I2370
sg2851
I2518
sg2852
I684
sg2853
I3434
sg2854
I1328
sg2855
I639
sg2856
I2944
sg2857
I2340
sg2858
I3514
sg2859
I611
sg2860
I2146
sg2861
I1586
sg2862
I45
sg2863
I1245
sg2864
I483
sg2865
I2447
sg2866
I2633
sg2867
I2144
sg2868
I2734
sg2869
I3193
sg2870
I3541
sg2871
I1793
sg2872
I2635
sg2873
I340
sg2874
I1660
sg2875
I2640
sg2876
I3453
sg2877
I1048
sg2878
I1546
sg2879
I2058
sg2880
I1174
sg2881
I1260
sg2882
I1037
sg2883
I2566
sg2884
I3609
sg2885
I1142
sg2886
I448
sg2887
I1680
sg2888
I587
sg2889
I2314
sg2890
I1402
sg2891
I3471
sg2892
I261
sg2893
I2664
sg2894
I3123
sg2895
I3281
sg2896
I2905
sg2897
I185
sg2898
I2989
sg2899
I143
sg2900
I638
sg2901
I1667
sg2902
I253
sg2903
I19
sg2904
I983
sg2905
I206
sg2906
I335
sg2907
I207
sg2908
I1160
sg2909
I92
sg2910
I2535
sg2911
I621
sg2912
I1874
sg2913
I1998
sg2914
I3119
sg2915
I1387
sg2916
I2061
sg2917
I3476
sg2918
I2964
sg2919
I99
sg2920
I1922
sg2921
I1034
sg2922
I1542
sg2923
I982
sg2924
I944
sg2925
I3190
sg2926
I1314
sg2927
I2666
sg2928
I1598
sg2929
I3089
sg2930
I1066
sg2931
I1840
sg2932
I2222
sg2933
I2590
sg2934
I1286
sg2935
I662
sg2936
I733
sg2937
I244
sg2938
I212
sg2939
I160
sg2940
I917
sg2941
I1839
sg2942
I3611
sg2943
I3125
sg2944
I357
sg2945
I3602
sg2946
I3226
sg2947
I1861
sg2948
I2360
sg2949
I3008
sg2950
I2424
sg2951
I361
sg2952
I166
sg2953
I942
sg2954
I2401
sg2955
I3570
sg2956
I156
sg2957
I577
sg2958
I3636
sg2959
I2271
sg2960
I1535
sg2961
I3274
sg2962
I3521
sg2963
I3404
sg2964
I2986
sg2965
I3575
sg2966
I3179
sg2967
I2956
sg2968
I1306
sg2969
I2485
sg2970
I2945
sg2971
I163
sg2972
I3252
sg2973
I300
sg2974
I1003
sg2975
I787
sg2976
I93
sg2977
I2722
sg2978
I202
sg2979
I572
sg2980
I3028
sg2981
I3362
sg2982
I2465
sg2983
I2343
sg2984
I1624
sg2985
I315
sg2986
I3547
sg2987
I319
sg2988
I3491
sg2989
I1852
sg2990
I582
sg2991
I490
sg2992
I2530
sg2993
I2954
sg2994
I2381
sg2995
I3144
sg2996
I3600
sg2997
I2728
sg2998
I2689
sg2999
I542
sg3000
I285
sg3001
I1591
sg3002
I777
sg3003
I3559
sg3004
I1570
sg3005
I2075
sg3006
I1656
sg3007
I708
sg3008
I161
sg3009
I3363
sg3010
I642
sg3011
I2876
sg3012
I3734
sg3013
I2220
sg3014
I1888
sg3015
I2251
sg3016
I1069
sg3017
I2175
sg3018
I2159
sg3019
I1908
sg3020
I2015
sg3021
I1007
sg3022
I1615
sg3023
I1177
sg3024
I288
sg3025
I1646
sg3026
I609
sg3027
I2886
sg3028
I1255
sg3029
I2365
sg3030
I853
sg3031
I943
sg3032
I1560
sg3033
I378
sg3034
I3236
sg3035
I3417
sg3036
I429
sg3037
I2057
sg3038
I936
sg3039
I1588
sg3040
I3026
sg3041
I1618
sg3042
I1053
sg3043
I560
sg3044
I2039
sg3045
I3037
sg3046
I2136
sg3047
I2168
sg3048
I2943
sg3049
I3484
sg3050
I1273
sg3051
I3263
sg3052
I154
sg3053
I33
sg3054
I2536
sg3055
I1250
sg3056
I2395
sg3057
I2436
sg3058
I14
sg3059
I194
sg3060
I1606
sg3061
I1202
sg3062
I2778
sg3063
I1995
sg3064
I1970
sg3065
I5
sg3066
I2453
sg3067
I2209
sg3068
I2739
sg3069
I23
sg3070
I796
sg3071
I1366
sg3072
I3610
sg3073
I2373
sg3074
I2298
sg3075
I3261
sg3076
I309
sg3077
I1386
sg3078
I1544
sg3079
I3553
sg3080
I1369
sg3081
I3686
sg3082
I624
sg3083
I3529
sg3084
I3737
sg3085
I3620
sg3086
I3540
sg3087
I2723
sg3088
I2630
sg3089
I905
sg3090
I2885
sg3091
I1855
sg3092
I3007
sg3093
I3458
sg3094
I377
sg3095
I3502
sg3096
I3658
sg3097
I731
sg3098
I1683
sg3099
I3213
sg3100
I1079
sg3101
I1426
sg3102
I1370
sg3103
I1409
sg3104
I3394
sg3105
I425
sg3106
I3185
sg3107
I35
sg3108
I3470
sg3109
I1575
sg3110
I2736
sg3111
I1885
sg3112
I2513
sg3113
I1334
sg3114
I265
sg3115
I661
sg3116
I801
sg3117
I3649
sg3118
I179
sg3119
I1257
sg3120
I1353
sg3121
I809
sg3122
I3035
sg3123
I1395
sg3124
I2809
sg3125
I854
sg3126
I1076
sg3127
I2187
sg3128
I3155
sg3129
I2078
sg3130
I1248
sg3131
I3549
sg3132
I1769
sg3133
I2705
sg3134
I3150
sg3135
I3374
sg3136
I1424
sg3137
I1203
sg3138
I2533
sg3139
I3022
sg3140
I980
sg3141
I685
sg3142
I3704
sg3143
I2602
sg3144
I1883
sg3145
I3592
sg3146
I3650
sg3147
I2949
sg3148
I2621
sg3149
I1319
sg3150
I1565
sg3151
I1196
sg3152
I2151
sg3153
I1063
sg3154
I1159
sg3155
I2308
sg3156
I718
sg3157
I147
sg3158
I182
sg3159
I1038
sg3160
I370
sg3161
I1345
sg3162
I2147
sg3163
I1377
sg3164
I1166
sg3165
I270
sg3166
I3066
sg3167
I209
sg3168
I2675
sg3169
I119
sg3170
I3702
sg3171
I3472
sg3172
I3546
sg3173
I3051
sg3174
I857
sg3175
I3194
sg3176
I1792
sg3177
I1448
sg3178
I831
sg3179
I720
sg3180
I1513
sg3181
I523
sg3182
I1445
sg3183
I1902
sg3184
I258
sg3185
I2262
sg3186
I1722
sg3187
I3556
sg3188
I3401
sg3189
I1780
sg3190
I985
sg3191
I1097
sg3192
I2030
sg3193
I1569
sg3194
I832
sg3195
I3258
sg3196
I305
sg3197
I849
sg3198
I155
sg3199
I1199
sg3200
I1100
sg3201
I162
sg3202
I3174
sg3203
I1504
sg3204
I766
sg3205
I3588
sg3206
I367
sg3207
I546
sg3208
I2660
sg3209
I2730
sg3210
I1406
sg3211
I2450
sg3212
I479
sg3213
I1515
sg3214
I2794
sg3215
I1443
sg3216
I692
sg3217
I427
sg3218
I2699
sg3219
I2270
sg3220
I1460
sg3221
I2464
sg3222
I3551
sg3223
I1503
sg3224
I2231
sg3225
I1030
sg3226
I372
sg3227
I3061
sg3228
I1833
sg3229
I1601
sg3230
I13
sg3231
I56
sg3232
I2754
sg3233
I1232
sg3234
I1844
sg3235
I1008
sg3236
I3111
sg3237
I2352
sg3238
I2163
sg3239
I3206
sg3240
I1884
sg3241
I3296
sg3242
I1421
sg3243
I2415
sg3244
I3700
sg3245
I3508
sg3246
I962
sg3247
I921
sg3248
I2216
sg3249
I3113
sg3250
I1971
sg3251
I2563
sg3252
I1487
sg3253
I1566
sg3254
I2086
sg3255
I1455
sg3256
I2132
sg3257
I3069
sg3258
I3338
sg3259
I991
sg3260
I2912
sg3261
I536
sg3262
I3326
sg3263
I1834
sg3264
I1342
sg3265
I1049
sg3266
I1862
sg3267
I3495
sg3268
I1791
sg3269
I2278
sg3270
I1524
sg3271
I221
sg3272
I1819
sg3273
I660
sg3274
I2579
sg3275
I220
sg3276
I31
sg3277
I2134
sg3278
I926
sg3279
I1649
sg3280
I2565
sg3281
I1918
sg3282
I886
sg3283
I2624
sg3284
I1490
sg3285
I2983
sg3286
I2587
sg3287
I2371
sg3288
I59
sg3289
I2647
sg3290
I291
sg3291
I3169
sg3292
I444
sg3293
I3561
sg3294
I2263
sg3295
I2816
sg3296
I2300
sg3297
I1092
sg3298
I2126
sg3299
I10
sg3300
I2090
sg3301
I762
sg3302
I34
sg3303
I1337
sg3304
I3367
sg3305
I2747
sg3306
I2129
sg3307
I3277
sg3308
I1612
sg3309
I1447
sg3310
I2199
sg3311
I3596
sg3312
I2315
sg3313
I2846
sg3314
I3003
sg3315
I1389
sg3316
I2595
sg3317
I2333
sg3318
I3002
sg3319
I1253
sg3320
I3341
sg3321
I236
sg3322
I1721
sg3323
I1905
sg3324
I739
sg3325
I3428
sg3326
I2174
sg3327
I2873
sg3328
I3595
sg3329
I3698
sg3330
I3146
sg3331
I3043
sg3332
I715
sg3333
I3454
sg3334
I893
sg3335
I1085
sg3336
I3438
sg3337
I2600
sg3338
I1694
sg3339
I922
sg3340
I1401
sg3341
I659
sg3342
I760
sg3343
I2403
sg3344
I1966
sg3345
I81
sg3346
I1461
sg3347
I391
sg3348
I930
sg3349
I732
sg3350
I1014
sg3351
I390
sg3352
I867
sg3353
I2238
sg3354
I947
sg3355
I2942
sg3356
I2243
sg3357
I406
sg3358
I498
sg3359
I2434
sg3360
I1493
sg3361
I2589
sg3362
I1009
sg3363
I2793
sg3364
I1688
sg3365
I3456
sg3366
I566
sg3367
I189
sg3368
I2981
sg3369
I3239
sg3370
I3420
sg3371
I3413
sg3372
I2700
sg3373
I1033
sg3374
I3730
sg3375
I3212
sg3376
I1850
sg3377
I1942
sg3378
I3577
sg3379
I3348
sg3380
I2265
sg3381
I402
sg3382
I3188
sg3383
I3288
sg3384
I3492
sg3385
I3586
sg3386
I2396
sg3387
I145
sg3388
I2677
sg3389
I2035
sg3390
I2455
sg3391
I2259
sg3392
I3474
sg3393
I1832
sg3394
I835
sg3395
I64
sg3396
I1109
sg3397
I585
sg3398
I3219
sg3399
I2623
sg3400
I2439
sg3401
I416
sg3402
I885
sg3403
I3265
sg3404
I1531
sg3405
I1533
sg3406
I3254
sg3407
I1084
sg3408
I1549
sg3409
I1351
sg3410
I3463
sg3411
I405
sg3412
I1777
sg3413
I2938
sg3414
I123
sg3415
I1462
sg3416
I1900
sg3417
I2933
sg3418
I966
sg3419
I3656
sg3420
I331
sg3421
I1868
sg3422
I2097
sg3423
I3713
sg3424
I2016
sg3425
I2708
sg3426
I1633
sg3427
I2878
sg3428
I1192
sg3429
I3697
sg3430
I651
sg3431
I3098
sg3432
I3276
sg3433
I1696
sg3434
I41
sg3435
I836
sg3436
I3381
sg3437
I1077
sg3438
I311
sg3439
I2038
sg3440
I988
sg3441
I814
sg3442
I1980
sg3443
I2213
sg3444
I411
sg3445
I1955
sg3446
I485
sg3447
I903
sg3448
I443
sg3449
I1373
sg3450
I1127
sg3451
I12
sg3452
I1058
sg3453
I2184
sg3454
I364
sg3455
I440
sg3456
I28
sg3457
I426
sg3458
I2858
sg3459
I1171
sg3460
I313
sg3461
I2973
sg3462
I359
sg3463
I2852
sg3464
I3126
sg3465
I3632
sg3466
I2303
sg3467
I3063
sg3468
I599
sg3469
I1784
sg3470
I2324
sg3471
I2418
sg3472
I1322
sg3473
I2253
sg3474
I175
sg3475
I2460
sg3476
I1705
sg3477
I1976
sg3478
I1028
sg3479
I242
sg3480
I352
sg3481
I1619
sg3482
I3307
sg3483
I2523
sg3484
I1766
sg3485
I1517
sg3486
I2197
sg3487
I478
sg3488
I2819
sg3489
I2577
sg3490
I3433
sg3491
I2023
sg3492
I2433
sg3493
I2909
sg3494
I1434
sg3495
I2145
sg3496
I2103
sg3497
I3627
sg3498
I650
sg3499
I950
sg3500
I2568
sg3501
I233
sg3502
I654
sg3503
I2745
sg3504
I1138
sg3505
I84
sg3506
I2877
sg3507
I673
sg3508
I1931
sg3509
I55
sg3510
I67
sg3511
I1249
sg3512
I845
sg3513
I2123
sg3514
I1036
sg3515
I1129
sg3516
I1187
sg3517
I1201
sg3518
I575
sg3519
I3138
sg3520
I341
sg3521
I3639
sg3522
I1756
sg3523
I1985
sg3524
I1130
sg3525
I3156
sg3526
I2029
sg3527
I3321
sg3528
I2083
sg3529
I3346
sg3530
I3285
sg3531
I383
sg3532
I1797
sg3533
I2768
sg3534
I3619
sg3535
I256
sg3536
I463
sg3537
I302
sg3538
I3366
sg3539
I3538
sg3540
I824
sg3541
I2299
sg3542
I728
sg3543
I2541
sg3544
I2457
sg3545
I1431
sg3546
I39
sg3547
I2215
sg3548
I984
sg3549
I776
sg3550
I1327
sg3551
I3387
sg3552
I1313
sg3553
I2651
sg3554
I1917
sg3555
I2493
sg3556
I216
sg3557
I3692
sg3558
I2179
sg3559
I1932
sg3560
I3291
sg3561
I1350
sg3562
I2953
sg3563
I1848
sg3564
I3058
sg3565
I1738
sg3566
I1282
sg3567
I1384
sg3568
I1339
sg3569
I1825
sg3570
I657
sg3571
I1385
sg3572
I3221
sg3573
I1144
sg3574
I2777
sg3575
I1938
sg3576
I3104
sg3577
I1748
sg3578
I1672
sg3579
I3199
sg3580
I110
sg3581
I103
sg3582
I2255
sg3583
I912
sg3584
I2329
sg3585
I304
sg3586
I77
sg3587
I379
sg3588
I3642
sg3589
I3178
sg3590
I27
sg3591
I2479
sg3592
I2194
sg3593
I1538
sg3594
I3223
sg3595
I2093
sg3596
I2837
sg3597
I1220
sg3598
I2694
sg3599
I892
sg3600
I3630
sg3601
I1934
sg3602
I568
sg3603
I3240
sg3604
I3386
sg3605
I1685
sg3606
I62
sg3607
I2489
sg3608
I1312
sg3609
I1983
sg3610
I1728
sg3611
I1846
sg3612
I3115
sg3613
I2731
sg3614
I939
sg3615
I3591
sg3616
I3040
sg3617
I1331
sg3618
I1292
sg3619
I2065
sg3620
I2703
sg3621
I2420
sg3622
I489
sg3623
I1210
sg3624
I2657
sg3625
I2302
sg3626
I2534
sg3627
I296
sg3628
I3130
sg3629
I1977
sg3630
I250
sg3631
I3122
sg3632
I3411
sg3633
I3175
sg3634
I3102
sg3635
I2164
sg3636
I1781
sg3637
I360
sg3638
I3419
sg3639
I1001
sg3640
I2328
sg3641
I2712
sg3642
I132
sg3643
I2230
sg3644
I2007
sg3645
I2593
sg3646
I3164
sg3647
I460
sg3648
I1714
sg3649
I3569
sg3650
I1119
sg3651
I2911
sg3652
I1404
sg3653
I2935
sg3654
I382
sg3655
I1064
sg3656
I1274
sg3657
I1089
sg3658
I1787
sg3659
I1278
sg3660
I755
sg3661
I3336
sg3662
I157
sg3663
I1950
sg3664
I709
sg3665
I303
sg3666
I1997
sg3667
I2815
sg3668
I1876
sg3669
I3208
sg3670
I2070
sg3671
I26
sg3672
I3049
sg3673
I1713
sg3674
I3014
sg3675
I608
sg3676
I2931
sg3677
I1718
sg3678
I3273
sg3679
I24
sg3680
I596
sg3681
I3684
sg3682
I1070
sg3683
I1477
sg3684
I210
sg3685
I721
sg3686
I2716
sg3687
I2466
sg3688
I1261
sg3689
I2591
sg3690
I3712
sg3691
I2115
sg3692
I3218
sg3693
I2234
sg3694
I2854
sg3695
I3328
sg3696
I1610
sg3697
I1865
sg3698
I2492
sg3699
I1690
sg3700
I1439
sg3701
I675
sg3702
I176
sg3703
I3050
sg3704
I1344
sg3705
I433
sg3706
I1658
sg3707
I1341
sg3708
I841
sg3709
I1929
sg3710
I2316
sg3711
I399
sg3712
I275
sg3713
I2094
sg3714
I1325
sg3715
I858
sg3716
I1574
sg3717
I698
sg3718
I1239
sg3719
I196
sg3720
I655
sg3721
I822
sg3722
I451
sg3723
I581
sg3724
I764
sg3725
I1887
sg3726
I3112
sg3727
I2883
sg3728
I1539
sg3729
I232
sg3730
I753
sg3731
I2842
sg3732
I1999
sg3733
I3286
sg3734
I1151
sg3735
I32
sg3736
I389
sg3737
I614
sg3738
I1975
sg3739
I701
sg3740
I3389
sg3741
I3324
sg3742
I1304
sg3743
I1804
sg3744
I3343
sg3745
I2507
sg3746
I2311
sg3747
I1496
sg3748
I3482
sg3749
I2683
sg3750
I3154
sg3751
I2763
sg3752
I415
sg3753
I3714
sg3754
I1405
sg3755
I646
sg3756
I3091
sg3757
I802
sg3758
I891
sg3759
I752
sg3760
I128
sg3761
I3251
sg3762
I3077
sg3763
I3074
ssS'_reverse_mapping'
p3766
(lp3767
g13
ag2778
ag1738
ag465
ag1921
ag3065
ag306
ag2704
ag701
ag2095
ag3299
ag79
ag3451
ag3230
ag3058
ag429
ag2190
ag1487
ag2118
ag2903
ag495
ag1840
ag694
ag3069
ag3679
ag1573
ag3671
ag3590
ag3456
ag2833
ag1426
ag3276
ag3735
ag3053
ag3302
ag3107
ag913
ag2380
ag2651
ag3546
ag2270
ag3434
ag350
ag324
ag1036
ag2862
ag2418
ag196
ag902
ag2393
ag2496
ag351
ag576
ag95
ag1052
ag3509
ag3231
ag1237
ag2443
ag3288
ag258
ag2786
ag3606
ag1519
ag3395
ag2816
ag866
ag3510
ag427
ag2800
ag911
ag840
ag1852
ag703
ag219
ag2339
ag1995
ag3586
ag2784
ag733
ag1776
ag3345
ag2493
ag1240
ag3505
ag356
ag2152
ag1898
ag1818
ag383
ag1338
ag540
ag2909
ag2976
ag1198
ag1439
ag94
ag2632
ag1173
ag2919
ag457
ag981
ag1246
ag3581
ag2548
ag305
ag1343
ag1335
ag867
ag546
ag3580
ag1482
ag23
ag1971
ag162
ag2344
ag1319
ag400
ag2622
ag3169
ag2848
ag2653
ag2722
ag3414
ag1291
ag622
ag2503
ag2120
ag3760
ag1574
ag903
ag1215
ag3642
ag782
ag1897
ag1409
ag2130
ag1571
ag772
ag523
ag1065
ag1432
ag1345
ag2899
ag2357
ag3387
ag968
ag3157
ag365
ag2351
ag2353
ag2746
ag2479
ag1433
ag3052
ag3198
ag2956
ag3662
ag1725
ag2563
ag2939
ag3008
ag3201
ag2971
ag1752
ag958
ag2952
ag1366
ag2662
ag2652
ag1835
ag2022
ag2669
ag1697
ag1779
ag3474
ag3702
ag1106
ag921
ag3118
ag813
ag2399
ag3158
ag851
ag545
ag2897
ag1967
ag2057
ag562
ag3367
ag1684
ag358
ag2278
ag1515
ag3059
ag1504
ag3719
ag322
ag2836
ag1908
ag1388
ag2273
ag2978
ag428
ag1780
ag1339
ag2905
ag2907
ag1235
ag3167
ag3684
ag26
ag2938
ag620
ag2132
ag2109
ag3556
ag263
ag984
ag1296
ag3275
ag3271
ag1598
ag2590
ag1997
ag1927
ag2241
ag2715
ag1410
ag384
ag2665
ag1843
ag3729
ag3501
ag1149
ag1070
ag3321
ag583
ag2648
ag2594
ag2134
ag2583
ag3479
ag663
ag2937
ag1151
ag673
ag279
ag93
ag240
ag3630
ag1342
ag2114
ag2902
ag2020
ag1655
ag3535
ag108
ag3184
ag1341
ag1466
ag2892
ag1014
ag614
ag2197
ag3114
ag1687
ag2530
ag1190
ag1324
ag3165
ag1118
ag251
ag2549
ag1828
ag3712
ag326
ag949
ag1661
ag2701
ag1505
ag1896
ag1973
ag1103
ag2257
ag3000
ag2320
ag743
ag3024
ag2725
ag1869
ag3290
ag2829
ag1095
ag752
ag226
ag3627
ag1962
ag2008
ag898
ag2973
ag727
ag3537
ag3665
ag3585
ag3196
ag364
ag2822
ag2690
ag3076
ag2126
ag3438
ag1000
ag3460
ag1455
ag2985
ag723
ag1614
ag2147
ag2987
ag999
ag796
ag1889
ag1079
ag321
ag1838
ag1907
ag2581
ag1375
ag101
ag2307
ag3420
ag639
ag2830
ag270
ag2906
ag757
ag2014
ag2102
ag1675
ag2873
ag3520
ag2398
ag1393
ag2675
ag2470
ag1068
ag2051
ag964
ag2667
ag142
ag2087
ag3480
ag2587
ag309
ag550
ag2139
ag2944
ag301
ag3462
ag3637
ag2951
ag1508
ag1686
ag3454
ag1635
ag1396
ag3206
ag2082
ag1970
ag3160
ag631
ag3226
ag1590
ag47
ag2242
ag597
ag3094
ag3033
ag3587
ag2577
ag1859
ag3654
ag3531
ag1497
ag1965
ag1960
ag2148
ag1225
ag3736
ag3351
ag3347
ag2726
ag2175
ag1404
ag1150
ag331
ag2546
ag74
ag3711
ag2204
ag2192
ag3381
ag1555
ag532
ag3411
ag3357
ag2129
ag80
ag2108
ag871
ag3444
ag2268
ag242
ag1974
ag3752
ag3401
ag1624
ag646
ag1307
ag478
ag1049
ag445
ag1101
ag1513
ag3105
ag3457
ag3217
ag2396
ag3036
ag1708
ag941
ag323
ag3705
ag2584
ag2497
ag788
ag1929
ag2683
ag745
ag3455
ag1502
ag2002
ag3448
ag3292
ag1157
ag1495
ag1200
ag2886
ag377
ag1657
ag3722
ag1972
ag1543
ag1550
ag853
ag977
ag207
ag272
ag1680
ag3647
ag1700
ag204
ag3536
ag2352
ag607
ag2492
ag1713
ag1721
ag777
ag346
ag1304
ag2384
ag664
ag2508
ag2759
ag906
ag2261
ag3487
ag3212
ag1985
ag899
ag1690
ag2864
ag2440
ag3446
ag542
ag1108
ag2048
ag3622
ag2991
ag2222
ag1623
ag250
ag209
ag1331
ag1470
ag141
ag3358
ag973
ag1261
ag2117
ag2119
ag2116
ag499
ag52
ag2045
ag1146
ag1728
ag431
ag1975
ag477
ag193
ag136
ag1344
ag1904
ag2650
ag1131
ag503
ag1695
ag1076
ag366
ag434
ag3181
ag1678
ag2227
ag436
ag304
ag1579
ag257
ag726
ag1175
ag2684
ag1281
ag146
ag1656
ag3261
ag2611
ag2511
ag297
ag2202
ag1978
ag2999
ag821
ag2125
ag106
ag3207
ag2755
ag1727
ag1210
ag2332
ag756
ag1316
ag671
ag2574
ag1340
ag1251
ag1113
ag1692
ag2658
ag3043
ag625
ag1792
ag1650
ag1059
ag2272
ag3366
ag482
ag3602
ag280
ag125
ag378
ag2979
ag2401
ag2186
ag3518
ag1829
ag2957
ag1636
ag2100
ag675
ag3723
ag2990
ag1232
ag2285
ag3397
ag261
ag2888
ag1288
ag2826
ag1631
ag1054
ag1812
ag2103
ag2012
ag1862
ag3680
ag705
ag1547
ag3468
ag2468
ag1358
ag333
ag2692
ag1350
ag740
ag1348
ag732
ag3675
ag3026
ag2142
ag2859
ag409
ag2538
ag3737
ag1514
ag1599
ag2065
ag2030
ag453
ag2226
ag2911
ag577
ag696
ag3082
ag2823
ag963
ag1766
ag1391
ag228
ag2158
ag2039
ag1107
ag1854
ag655
ag1765
ag818
ag789
ag2900
ag2855
ag1012
ag2723
ag3010
ag117
ag2235
ag2184
ag3755
ag1831
ag686
ag2644
ag3498
ag3430
ag67
ag787
ag3502
ag3720
ag227
ag3570
ag2049
ag3341
ag3273
ag3115
ag2935
ag1924
ag679
ag2811
ag403
ag881
ag2046
ag1312
ag2042
ag1682
ag2052
ag3507
ag637
ag3701
ag1750
ag2718
ag1337
ag541
ag122
ag425
ag1244
ag533
ag2852
ag3141
ag462
ag693
ag1694
ag797
ag1807
ag1185
ag3216
ag412
ag771
ag302
ag652
ag1123
ag3717
ag2367
ag2403
ag3739
ag1906
ag84
ag1887
ag21
ag2517
ag2455
ag3007
ag3664
ag543
ag182
ag1649
ag492
ag1756
ag3332
ag1456
ag2006
ag3156
ag1956
ag3179
ag3685
ag2688
ag761
ag619
ag1950
ag1449
ag20
ag3542
ag2567
ag815
ag3097
ag3349
ag2936
ag2735
ag2430
ag2275
ag1328
ag1460
ag3324
ag1739
ag593
ag1209
ag2104
ag2700
ag735
ag2349
ag2318
ag976
ag978
ag806
ag140
ag3759
ag3730
ag1625
ag3660
ag1295
ag1850
ag191
ag766
ag3342
ag432
ag3301
ag859
ag3724
ag1527
ag3204
ag2062
ag1027
ag2303
ag1881
ag1486
ag520
ag539
ag1249
ag76
ag3549
ag3002
ag1610
ag1506
ag1476
ag1500
ag1666
ag987
ag1523
ag563
ag130
ag2975
ag1522
ag823
ag1665
ag454
ag2821
ag38
ag2646
ag1732
ag3070
ag328
ag2355
ag643
ag2452
ag3116
ag3757
ag154
ag2571
ag2121
ag137
ag1481
ag1105
ag3121
ag1806
ag2744
ag2405
ag2766
ag3441
ag2676
ag1546
ag282
ag1883
ag2326
ag2782
ag1360
ag3721
ag414
ag3540
ag744
ag1534
ag2585
ag681
ag1083
ag153
ag3178
ag3194
ag2280
ag2394
ag3394
ag3435
ag1644
ag1880
ag827
ag2434
ag3708
ag1593
ag1480
ag223
ag3512
ag467
ag956
ag53
ag3197
ag1077
ag692
ag2328
ag3030
ag3125
ag2053
ag1802
ag3174
ag3715
ag2499
ag494
ag165
ag2310
ag413
ag2408
ag2525
ag1390
ag3352
ag144
ag2360
ag1171
ag2124
ag1134
ag1890
ag1069
ag1899
ag1443
ag1058
ag1459
ag1428
ag1475
ag553
ag852
ag55
ag1336
ag3402
ag3282
ag810
ag1641
ag883
ag2127
ag3758
ag3599
ag3334
ag382
ag579
ag1982
ag1299
ag998
ag2329
ag1401
ag1327
ag225
ag3447
ag2001
ag3089
ag2377
ag1801
ag862
ag2381
ag2579
ag1753
ag3583
ag2028
ag220
ag235
ag129
ag2940
ag2435
ag2251
ag1013
ag3247
ag3339
ag2840
ag1156
ag1816
ag3278
ag2077
ag936
ag937
ag3348
ag2299
ag110
ag485
ag1214
ag1091
ag3038
ag1790
ag2335
ag3614
ag2656
ag419
ag2953
ag3031
ag2924
ag522
ag1376
ag3354
ag994
ag712
ag3499
ag98
ag1071
ag1279
ag1653
ag914
ag2506
ag1445
ag1368
ag1144
ag216
ag2167
ag3246
ag944
ag2319
ag830
ag3418
ag1030
ag1148
ag2578
ag376
ag496
ag1137
ag1405
ag537
ag746
ag354
ag371
ag1548
ag1853
ag3140
ag1457
ag2923
ag2904
ag3548
ag3190
ag1715
ag508
ag3440
ag2199
ag2625
ag3259
ag1188
ag850
ag648
ag2640
ag749
ag2685
ag1677
ag2047
ag965
ag3639
ag277
ag2974
ag2529
ag680
ag336
ag3021
ag3235
ag3362
ag605
ag1169
ag2061
ag119
ag3350
ag33
ag442
ag2230
ag825
ag1268
ag2376
ag1191
ag1310
ag2818
ag2785
ag982
ag300
ag1836
ag3478
ag2388
ag3225
ag1651
ag2233
ag3373
ag2921
ag516
ag3514
ag2882
ag3159
ag2621
ag2544
ag1136
ag1130
ag2843
ag418
ag1019
ag905
ag1236
ag2877
ag3265
ag249
ag1280
ag307
ag3042
ag172
ag1008
ag224
ag269
ag3452
ag479
ag2748
ag1407
ag1621
ag3153
ag3655
ag2624
ag2930
ag1709
ag352
ag3016
ag3682
ag2096
ag760
ag247
ag1104
ag786
ag3126
ag3437
ag178
ag3100
ag1351
ag2004
ag687
ag2446
ag3407
ag3335
ag1620
ag254
ag430
ag3657
ag1998
ag1223
ag3297
ag536
ag989
ag1465
ag1129
ag3191
ag804
ag337
ag3200
ag1400
ag557
ag1764
ag2649
ag1090
ag450
ag1386
ag386
ag3396
ag2627
ag1608
ag2445
ag1877
ag1029
ag2391
ag1994
ag72
ag2498
ag3650
ag2419
ag2031
ag946
ag111
ag753
ag595
ag1436
ag3450
ag2793
ag3515
ag3524
ag497
ag1578
ag1535
ag2067
ag912
ag2286
ag2524
ag3504
ag2707
ag1258
ag996
ag2885
ag2321
ag3573
ag2092
ag2302
ag325
ag245
ag615
ag1143
ag3734
ag2010
ag972
ag611
ag966
ag737
ag156
ag2478
ag3154
ag2908
ag2277
ag2144
ag515
ag758
ag367
ag3164
ag2178
ag362
ag2333
ag716
ag3459
ag195
ag2217
ag2880
ag1915
ag2551
ag3023
ag91
ag858
ag49
ag2564
ag2069
ag96
ag2311
ag651
ag1846
ag3516
ag1751
ag2341
ag1611
ag2467
ag3428
ag1605
ag1256
ag2780
ag3151
ag423
ag724
ag3199
ag811
ag3517
ag3061
ag3137
ag868
ag924
ag1072
ag29
ag1004
ag738
ag3623
ag2369
ag113
ag1602
ag1679
ag2337
ag1234
ag2324
ag438
ag2055
ag3597
ag2013
ag2138
ag1435
ag2050
ag1529
ag1507
ag1799
ag449
ag1748
ag2115
ag1603
ag3233
ag1132
ag608
ag1777
ag1821
ag2107
ag2591
ag3718
ag1848
ag58
ag1759
ag1166
ag1488
ag2863
ag66
ag2798
ag3130
ag3511
ag3055
ag173
ag552
ag3319
ag1822
ag3028
ag2615
ag3119
ag2444
ag2695
ag2881
ag3688
ag1329
ag1668
ag1770
ag582
ag1273
ag1458
ag313
ag1795
ag2213
ag2011
ag1429
ag3050
ag3656
ag1009
ag1626
ag880
ag3659
ag2327
ag398
ag2215
ag3566
ag1208
ag567
ag276
ag2934
ag2846
ag1371
ag2606
ag1469
ag102
ag3618
ag1724
ag1712
ag2439
ag2666
ag327
ag828
ag1064
ag731
ag1617
ag635
ag1361
ag3742
ag2849
ag2968
ag769
ag904
ag1823
ag547
ag784
ag3608
ag3552
ag2926
ag677
ag1363
ag2402
ag1322
ag3149
ag2768
ag2164
ag3472
ag2473
ag2246
ag3714
ag85
ag3550
ag2854
ag1983
ag2835
ag3617
ag176
ag149
ag3113
ag2734
ag1272
ag3303
ag293
ag3568
ag1643
ag3707
ag3264
ag2044
ag3704
ag3161
ag514
ag2509
ag554
ag1988
ag3561
ag3409
ag1989
ag3120
ag2304
ag1587
ag2141
ag1864
ag396
ag1793
ag1165
ag229
ag2698
ag1540
ag2769
ag2411
ag3071
ag2195
ag268
ag3080
ag3102
ag2456
ag314
ag3449
ag685
ag1726
ag200
ag3163
ag2618
ag2763
ag2427
ag1180
ag1417
ag1774
ag3567
ag3571
ag3077
ag2915
ag295
ag3315
ag1717
ag134
ag417
ag2754
ag2600
ag3123
ag2086
ag2545
ag2514
ag1289
ag2495
ag3340
ag2890
ag907
ag3652
ag3754
ag3210
ag1451
ag854
ag3103
ag590
ag1403
ag380
ag706
ag1050
ag917
ag970
ag198
ag717
ag2137
ag1601
ag3242
ag115
ag1842
ag3136
ag2510
ag3101
ag929
ag2298
ag2737
ag558
ag3545
ag1379
ag1260
ag3494
ag2795
ag1957
ag2810
ag2471
ag3700
ag1442
ag1559
ag762
ag3215
ag2088
ag3182
ag1895
ag3309
ag3177
ag2032
ag2535
ag657
ag720
ag2791
ag158
ag3255
ag1441
ag2406
ag1855
ag2365
ag3220
ag3346
ag3415
ag879
ag1094
ag1803
ag329
ag2458
ag767
ag2697
ag2438
ag2170
ag133
ag1824
ag1634
ag214
ag1868
ag3683
ag335
ag930
ag1879
ag363
ag2254
ag2259
ag1055
ag1294
ag699
ag3252
ag88
ag2265
ag3284
ag405
ag275
ag3360
ag2356
ag408
ag3747
ag2654
ag610
ag741
ag1325
ag1015
ag1544
ag3223
ag3203
ag2404
ag1884
ag1047
ag444
ag217
ag41
ag1729
ag187
ag3180
ag255
ag3213
ag748
ag3485
ag248
ag869
ag1128
ag1966
ag60
ag1359
ag3270
ag1021
ag2687
ag980
ag208
ag2554
ag1933
ag3404
ag177
ag3405
ag2642
ag2960
ag1746
ag332
ag3593
ag3728
ag1837
ag2209
ag2922
ag612
ag3078
ag1121
ag2878
ag925
ag1286
ag3408
ag2543
ag426
ag1212
ag947
ag885
ag1424
ag2221
ag2287
ag2143
ag1271
ag3032
ag197
ag1932
ag120
ag2179
ag3150
ag3253
ag689
ag127
ag3193
ag3004
ag2645
ag370
ag1674
ag3716
ag3109
ag2358
ag2309
ag1431
ag2481
ag1005
ag221
ag452
ag44
ag1427
ag1203
ag2861
ag2476
ag3039
ag1931
ag1406
ag3001
ag799
ag1951
ag2331
ag621
ag1063
ag1946
ag2928
ag837
ag629
ag3229
ag2070
ag1317
ag360
ag1990
ag3060
ag992
ag2083
ag82
ag3696
ag1420
ag3308
ag2689
ag666
ag3022
ag2781
ag2451
ag3041
ag3481
ag702
ag1454
ag349
ag2802
ag2984
ag2655
ag1089
ag440
ag1920
ag1402
ag1067
ag2494
ag803
ag3426
ag534
ag2597
ag599
ag233
ag31
ag218
ag393
ag2176
ag953
ag160
ag2374
ag755
ag3025
ag848
ag1367
ag3279
ag340
ag2487
ag372
ag1584
ag1658
ag2305
ag3006
ag2513
ag3706
ag2024
ag2874
ag817
ag2110
ag1830
ag1903
ag2486
ag1730
ag2901
ag2619
ag139
ag1468
ag167
ag3578
ag2602
ag2825
ag2828
ag2239
ag2323
ag678
ag569
ag2887
ag239
ag2111
ag3098
ag1205
ag3605
ag1524
ag1392
ag3364
ag2523
ag3699
ag802
ag1509
ag2187
ag3338
ag1558
ag3433
ag2218
ag402
ag997
ag2185
ag1630
ag2559
ag1763
ag1820
ag3476
ag832
ag188
ag194
ag2661
ag2019
ag527
ag1230
ag3673
ag3648
ag805
ag1086
ag2565
ag3677
ag2745
ag626
ag3322
ag3186
ag375
ag2490
ag1102
ag488
ag1794
ag3610
ag1810
ag2225
ag865
ag2789
ag1977
ag1491
ag1421
ag132
ag875
ag3565
ag379
ag392
ag1769
ag2306
ag2639
ag1414
ag2414
ag123
ag1673
ag3577
ag1315
ag1493
ag266
ag202
ag572
ag25
ag2775
ag3522
ag2413
ag395
ag2454
ag310
ag109
ag1031
ag2068
ag1020
ag1778
ag3484
ag768
ag1099
ag3132
ag1720
ag1042
ag2485
ag2237
ag2314
ag2547
ag2090
ag3412
ag2375
ag2719
ag3189
ag3636
ag2301
ag1474
ag3469
ag99
ag1224
ag3658
ag1922
ag1539
ag1119
ag3268
ag3176
ag2871
ag1308
ag518
ag1771
ag3532
ag1565
ag458
ag707
ag2837
ag792
ag232
ag3743
ag1699
ag649
ag1791
ag2297
ag2465
ag36
ag2422
ag1007
ag231
ag2284
ag1886
ag2542
ag2017
ag1496
ag3272
ag2105
ag2428
ag1875
ag2612
ag719
ag3569
ag1051
ag1847
ag2686
ag2562
ag2317
ag2417
ag3393
ag3228
ag3263
ag1528
ag713
ag355
ag1782
ag2941
ag2931
ag473
ag765
ag642
ag3234
ag415
ag3611
ag287
ag3563
ag2636
ag3376
ag602
ag2989
ag2482
ag895
ag3091
ag893
ag2099
ag2437
ag2240
ag819
ag2947
ag3266
ag2813
ag1085
ag3697
ag1860
ag2188
ag3421
ag775
ag1162
ag1182
ag834
ag1352
ag2912
ag2560
ag3668
ag1489
ag1218
ag2036
ag2211
ag341
ag1867
ag3144
ag3240
ag3111
ag183
ag3725
ag3014
ag411
ag1926
ag148
ag2420
ag1494
ag2616
ag1377
ag50
ag1192
ag1785
ag2457
ag3416
ag1953
ag3183
ag1189
ag959
ag3323
ag2838
ag1196
ag3019
ag2072
ag1959
ag1863
ag433
ag1080
ag1357
ag206
ag770
ag3554
ag3281
ag460
ag294
ag71
ag2920
ag575
ag1893
ag1755
ag315
ag236
ag1757
ag3709
ag39
ag3508
ag3559
ag2555
ag3601
ag2075
ag2588
ag424
ag3575
ag691
ag388
ag874
ag3377
ag1437
ag2140
ag1857
ag339
ag2412
ag812
ag1088
ag3663
ag1629
ag1002
ag2060
ag722
ag3445
ag1039
ag1461
ag210
ag2370
ag455
ag2633
ag2392
ag1330
ag70
ag2572
ag3344
ag901
ag2770
ag2038
ag3064
ag3250
ag100
ag2575
ag2224
ag3738
ag3477
ag3629
ag764
ag548
ag3442
ag535
ag278
ag3609
ag1702
ag3523
ag2764
ag2463
ag347
ag1313
ag493
ag2834
ag1827
ag2536
ag500
ag3063
ag1362
ag3666
ag2913
ag3732
ag211
ag2739
ag816
ag950
ag943
ag1333
ag1710
ag3644
ag32
ag472
ag2160
ag2720
ag860
ag1416
ag872
ag3020
ag3424
ag1747
ag1353
ag387
ag1905
ag2756
ag1604
ag3491
ag1670
ag1155
ag2016
ag588
ag222
ag3526
ag3192
ag1044
ag990
ag448
ag2842
ag3389
ag2794
ag2395
ag3439
ag3044
ag721
ag318
ag1211
ag1026
ag1943
ag1347
ag1374
ag2266
ag199
ag2460
ag653
ag374
ag1038
ag2378
ag1269
ag1114
ag2382
ag3037
ag2879
ag658
ag585
ag2916
ag1434
ag2792
ag1037
ag3619
ag2145
ag2522
ag369
ag1731
ag3670
ag1373
ag2354
ag2216
ag2325
ag3005
ag1914
ag435
ag3129
ag1248
ag844
ag1622
ag2705
ag3528
ag636
ag1775
ag3254
ag1332
ag2093
ag2059
ag3300
ag2232
ag729
ag3595
ag3713
ag1520
ag81
ag3422
ag774
ag201
ag962
ag2089
ag1585
ag3496
ag2191
ag2557
ag246
ag1318
ag2288
ag2534
ag1440
ag2570
ag1040
ag1923
ag779
ag3691
ag628
ag104
ag476
ag660
ag1767
ag2262
ag2772
ag3513
ag107
ag1274
ag3298
ag1018
ag437
ag3306
ag2708
ag931
ag3256
ag759
ag3277
ag596
ag3046
ag995
ag2807
ag2416
ag2750
ag556
ag1858
ag2247
ag2867
ag3495
ag2860
ag3162
ag152
ag468
ag1206
ag3152
ag1241
ag2203
ag2596
ag2824
ag2200
ag2681
ag97
ag3018
ag2660
ag1178
ag296
ag3238
ag3635
ag530
ag2189
ag873
ag3047
ag421
ag1219
ag2436
ag2322
ag312
ag3326
ag3017
ag2063
ag1600
ag951
ag3558
ag1364
ag2749
ag842
ag281
ag3453
ag73
ag1216
ag3127
ag138
ag1968
ag2601
ag2586
ag2610
ag2556
ag3592
ag2531
ag271
ag3486
ag2573
ag3310
ag886
ag623
ag1303
ag2447
ag264
ag1075
ag1741
ag2533
ag1789
ag3067
ag2181
ag926
ag1057
ag3443
ag669
ag3547
ag3248
ag284
ag1632
ag166
ag3013
ag922
ag2932
ag1580
ag2313
ag1531
ag1300
ag2776
ag2706
ag668
ag3643
ag3224
ag1809
ag1444
ag3693
ag618
ag1397
ag1552
ag3353
ag1133
ag2566
ag2659
ag908
ag3356
ag2171
ag320
ag1664
ag742
ag2450
ag2598
ag439
ag3015
ag283
ag3473
ag1942
ag3582
ag1041
ag1892
ag1557
ag3391
ag241
ag645
ag3185
ag3294
ag2657
ag3380
ag1609
ag2839
ag1525
ag1718
ag3219
ag2959
ag1516
ag845
ag2066
ag2009
ag1681
ag1275
ag3269
ag2512
ag2424
ag2193
ag2161
ag1147
ag517
ag2608
ag259
ag1913
ag2173
ag1638
ag2628
ag960
ag1142
ag1204
ag274
ag1023
ag2844
ag2429
ag3074
ag3541
ag3296
ag2673
ag3625
ag3466
ag2243
ag2552
ag1918
ag1805
ag3155
ag2300
ag273
ag3746
ag808
ag2151
ag2889
ag3312
ag3710
ag763
ag571
ag1006
ag630
ag644
ag390
ag2248
ag3470
ag2623
ag1936
ag2727
ag3640
ag3584
ag1871
ag1930
ag1542
ag3317
ag606
ag1372
ag2771
ag2267
ag2156
ag2159
ag2857
ag1996
ag634
ag2983
ag1463
ag1928
ag1252
ag1556
ag2081
ag836
ag469
ag470
ag3237
ag1719
ag704
ag1866
ag126
ag114
ag647
ag1284
ag2948
ag2347
ag1213
ag1447
ag238
ag3029
ag1282
ag506
ag2808
ag2000
ag2850
ag3287
ag2026
ag3073
ag884
ag2064
ag1856
ag783
ag2252
ag2605
ag1098
ag2994
ag2330
ag2415
ag2607
ag1326
ag1383
ag1305
ag1159
ag2433
ag1541
ag69
ag2342
ag2177
ag2236
ag3056
ag3386
ag1576
ag824
ag891
ag654
ag2954
ag2728
ag3343
ag1078
ag1483
ag466
ag128
ag573
ag103
ag1691
ag521
ag1250
ag2620
ag1596
ag3243
ag2740
ag2041
ag3471
ag1648
ag3621
ag544
ag785
ag549
ag2950
ag1935
ag2029
ag171
ag656
ag2817
ag1688
ag1633
ag1562
ag3492
ag3359
ag2796
ag3057
ag632
ag2263
ag3400
ag2264
ag661
ag343
ag2153
ag1762
ag855
ag2461
ag2865
ag1833
ag2814
ag3211
ag974
ag551
ag3066
ag1073
ag3390
ag1538
ag3544
ag2696
ag1981
ag3475
ag1254
ag40
ag829
ag3221
ag2982
ag3687
ag2635
ag1814
ag2250
ag62
ag2712
ag1701
ag1116
ag1074
ag2390
ag2214
ag1160
ag1262
ag3591
ag2165
ag203
ag92
ag2593
ag591
ag2969
ag1422
ag2500
ag54
ag3607
ag2023
ag2220
ag3698
ag3555
ag877
ag1161
ag1569
ag955
ag2194
ag2256
ag1607
ag2338
ag1954
ag1082
ag1382
ag192
ag286
ag3745
ag1452
ag2484
ag736
ag1737
ag1285
ag3112
ag1467
ag407
ag2760
ag1553
ag2851
ag2604
ag317
ag348
ag1221
ag3483
ag420
ag1034
ag700
ag1267
ag422
ag1170
ag2992
ag2812
ag1588
ag3138
ag3626
ag2910
ag3054
ag1056
ag1167
ag1586
ag807
ag3543
ag1671
ag698
ag1804
ag927
ag2101
ag662
ag2568
ag1334
ag734
ag1395
ag566
ag292
ag2682
ag2521
ag1980
ag1024
ag938
ag587
ag1163
ag1370
ag1093
ag3251
ag776
ag3280
ag2883
ag2172
ag3500
ag2180
ag2289
ag2018
ag179
ag2819
ag2732
ag1158
ag37
ag3489
ag1583
ag3274
ag798
ag1683
ag1772
ag46
ag1016
ag979
ag2553
ag3286
ag1788
ag3361
ag2933
ag3689
ag2714
ag3645
ag1394
ag3316
ag2276
ag2773
ag565
ag1025
ag3337
ag684
ag3143
ag1425
ag507
ag598
ag524
ag1786
ag1199
ag135
ag2516
ag1939
ag163
ag559
ag338
ag1537
ag155
ag934
ag1662
ag290
ag674
ag3148
ag833
ag3399
ag3283
ag2073
ag1979
ag1035
ag2094
ag2423
ag3088
ag1873
ag2040
ag2866
ag1448
ag2872
ag1894
ag928
ag2074
ag256
ag2875
ag474
ag910
ag1901
ag1963
ag2201
ag2847
ag3289
ag897
ag2491
ag1817
ag3553
ag2426
ag1934
ag151
ag2097
ag2106
ag3624
ag2738
ag856
ag3208
ag164
ag1247
ag942
ag2893
ag253
ag2927
ag2592
ag2790
ag2641
ag1839
ag2112
ag121
ag299
ag498
ag3168
ag1723
ag3388
ag2448
ag1874
ag1003
ag1485
ag168
ag3749
ag809
ag2295
ag1135
ag2803
ag491
ag2998
ag2672
ag1115
ag1861
ag1616
ag3598
ag2249
ag502
ag1423
ag186
ag3218
ag3372
ag1346
ag260
ag3620
ag2196
ag3133
ag2631
ag847
ag3425
ag616
ag564
ag650
ag3641
ag592
ag2245
ag2758
ag3686
ag1227
ag475
ag1462
ag2614
ag778
ag2977
ag3087
ag2407
ag1311
ag1233
ag1045
ag2997
ag112
ag3209
ag3613
ag2362
ag2716
ag2868
ag190
ag3110
ag1438
ag1387
ag3068
ag212
ag600
ag2442
ag2742
ag1314
ag3503
ag2085
ag3305
ag2528
ag2274
ag876
ag1323
ag2150
ag1229
ag3232
ag1257
ag230
ag2703
ag1536
ag45
ag791
ag2515
ag2238
ag3751
ag2643
ag1242
ag443
ag2336
ag3533
ag1177
ag1492
ag1408
ag1081
ag2710
ag2668
ag35
ag957
ag3574
ag3062
ag2589
ag2576
ag2629
ag993
ag613
ag267
ag2613
ag2561
ag298
ag1667
ag1411
ag896
ag244
ag2166
ag3363
ag3214
ag1964
ag1811
ag1660
ag175
ag308
ag841
ag2207
ag490
ag509
ag1876
ag1911
ag728
ag150
ag1176
ag3124
ag116
ag1841
ag1122
ag1179
ag1194
ag3667
ag3295
ag718
ag1356
ag3488
ag709
ag1945
ag725
ag2371
ag665
ag2080
ag1446
ag180
ag2469
ag2550
ag2135
ag1606
ag861
ag2260
ag1228
ag1512
ag2767
ag3596
ag1048
ag988
ag1380
ag1865
ag3731
ag252
ag2827
ag2603
ag3313
ag2731
ag708
ag2729
ag1127
ag1197
ag3463
ag1872
ag3694
ag800
ag2762
ag857
ag3458
ag1563
ag1961
ag1145
ag2617
ag2472
ag1749
ag289
ag2691
ag2777
ag609
ag1825
ag2253
ag1916
ag1591
ag3327
ag1298
ag1053
ag3011
ag3506
ag3427
ag1640
ag2206
ag1768
ag2724
ag3727
ag1430
ag3090
ag3027
ag887
ag1796
ag2363
ag1517
ag878
ag1706
ag1154
ag560
ag1618
ag604
ag932
ag580
ag2630
ag2182
ag368
ag683
ag385
ag831
ag2896
ag2841
ag359
ag1733
ag3493
ag2315
ag3651
ag3260
ag1243
ag1878
ag2361
ag695
ag1597
ag1301
ag234
ag86
ag361
ag303
ag1022
ag2694
ag1125
ag967
ag2741
ag1952
ag2831
ag603
ag3676
ag909
ag3417
ag1309
ag3653
ag1060
ag1783
ag3413
ag2255
ag538
ag2279
ag3355
ag3048
ag2856
ag2970
ag510
ag404
ag975
ag3147
ag1464
ag1365
ag1743
ag3562
ag2993
ag1389
ag2967
ag243
ag667
ag2364
ag1152
ag1919
ag2373
ag1066
ag2918
ag2210
ag915
ag1594
ag1193
ag1758
ag1385
ag826
ag864
ag3461
ag319
ag1032
ag1689
ag820
ag205
ag986
ag42
ag3368
ag1991
ag3285
ag1092
ag790
ag2964
ag1663
ag1849
ag2898
ag1418
ag1521
ag1526
ag2385
ag2033
ag1659
ag1944
ag781
ag2282
ag1412
ag2071
ag2359
ag3318
ag3314
ag1851
ag2258
ag484
ag3092
ag2949
ag461
ag170
ag1290
ag1503
ag1259
ag3674
ag2223
ag1937
ag1378
ag1984
ag161
ag1698
ag991
ag3139
ag561
ag2056
ag780
ag3040
ag1703
ag2980
ag2146
ag181
ag1564
ag1126
ag1568
ag1490
ag3122
ag56
ag3045
ag1705
ag2037
ag3616
ag1501
ag2348
ag3331
ag1711
ag1413
ag2316
ag2387
ag1184
ag3672
ag3703
ag3173
ag1033
ag750
ag1647
ag670
ag2005
ag918
ag3564
ag2076
ag357
ag3227
ag1017
ag3467
ag1062
ag1925
ag3166
ag2003
ag2091
ag3257
ag2058
ag1164
ag1499
ag2421
ag3763
ag888
ag2595
ag3762
ag1669
ag2815
ag2664
ag89
ag2183
ag451
ag1589
ag1349
ag1760
ag1642
ag2198
ag2929
ag159
ag3756
ag2269
ag262
ag1745
ag2832
ag1181
ag1948
ag3431
ag1096
ag1419
ag870
ag3634
ag1882
ag3576
ag594
ag2163
ag1010
ag747
ag939
ag640
ag3236
ag3726
ag3249
ag2820
ag3612
ag795
ag1554
ag1355
ag2914
ag2752
ag2453
ag3631
ag2894
ag526
ag2943
ag3464
ag682
ag1222
ag1277
ag3628
ag525
ag1870
ag2733
ag1320
ag1287
ag1639
ag1992
ag3519
ag697
ag1704
ag1696
ag78
ag584
ag2995
ag1202
ag3330
ag459
ag2805
ag2626
ag3134
ag51
ag688
ag2540
ag3750
ag3128
ag3525
ag2736
ag2678
ag1046
ag1471
ag145
ag1613
ag2663
ag3646
ag1302
ag2383
ag2519
ag1808
ag3291
ag373
ag1577
ag2340
ag2702
ag3202
ag3633
ag174
ag237
ag3589
ag2966
ag529
ag1124
ag2294
ag2027
ag68
ag3106
ag1139
ag1231
ag3382
ag2379
ag2925
ag2709
ag1909
ag2869
ag3175
ag501
ag892
ag143
ag397
ag3579
ag2507
ag894
ag2475
ag2054
ag714
ag555
ag3239
ag1940
ag3669
ag513
ag1226
ag2290
ag3375
ag3099
ag2679
ag2541
ag1220
ag2634
ag3692
ag3398
ag2128
ag3572
ag849
ag3594
ag1592
ag65
ag2946
ag2765
ag463
ag933
ag399
ag87
ag1693
ag581
ag344
ag316
ag3034
ag1321
ag2717
ag3369
ag3603
ag2136
ag285
ag835
ag2801
ag2168
ag1813
ag1530
ag57
ag1986
ag1141
ag3761
ag2972
ag2372
ag3406
ag1735
ag2474
ag2751
ag3195
ag2368
ag617
ag3075
ag1473
ag3051
ag2133
ag3403
ag184
ag574
ag2015
ag2154
ag1207
ag64
ag2537
ag3678
ag2961
ag1912
ag3432
ag3307
ag843
ag342
ag1292
ag2895
ag1787
ag1001
ag1797
ag3530
ag3733
ag2680
ag3383
ag1845
ag1646
ag3560
ag2386
ag1498
ag920
ag2806
ag3241
ag952
ag2671
ag710
ag2291
ag1061
ag589
ag1999
ag2558
ag1993
ag1976
ag3482
ag456
ag2783
ag1087
ag1844
ag1278
ag2462
ag2293
ag1174
ag353
ag2334
ag1754
ag1293
ag672
ag3527
ag1109
ag1567
ag3741
ag1518
ag3262
ag1399
ag3695
ag2228
ag1891
ag464
ag1369
ag945
ag2131
ag1612
ag3661
ag971
ag3258
ag754
ag2477
ag3320
ag2609
ag3744
ag446
ag1595
ag3529
ag2007
ag3379
ag1477
ag1097
ag2425
ag1172
ag1153
ag1264
ag505
ag2449
ag2809
ag2743
ag1283
ag1955
ag2034
ag2981
ag3009
ag1888
ag1734
ag3538
ag3304
ag2346
ag2234
ag147
ag2713
ag2677
ag189
ag3135
ag1140
ag863
ag739
ag1938
ag1685
ag2804
ag3436
ag822
ag1117
ag1545
ag1736
ag3604
ag3551
ag1120
ag3740
ag1111
ag1654
ag1138
ag1917
ag3104
ag27
ag213
ag2730
ag410
ag846
ag1532
ag3188
ag480
ag265
ag2963
ag2504
ag511
ag2527
ag2113
ag2292
ag471
ag3632
ag1815
ag3371
ag794
ag715
ag889
ag3035
ag1619
ag3638
ag3370
ag489
ag919
ag2123
ag1575
ag2520
ag416
ag2431
ag3325
ag34
ag2205
ag2699
ag2489
ag3490
ag2853
ag1484
ag118
ag1826
ag3336
ag1110
ag1740
ag954
ag2488
ag1819
ag1987
ag2122
ag291
ag1627
ag1676
ag1652
ag948
ag2281
ag2483
ag2876
ag3333
ag801
ag3365
ag2345
ag3093
ag2774
ag751
ag2539
ag1947
ag3410
ag2799
ag2229
ag1572
ag1570
ag2397
ag1628
ag3108
ag2891
ag3171
ag2084
ag3392
ag1479
ag2917
ag1183
ag1533
ag2312
ag2580
ag1381
ag3748
ag2432
ag3049
ag391
ag2501
ag169
ag586
ag2079
ag2637
ag2988
ag3384
ag2670
ag2747
ag3267
ag519
ag2244
ag601
ag1773
ag2174
ag157
ag3095
ag916
ag2212
ag487
ag2389
ag1834
ag3245
ag711
ag1201
ag2043
ag900
ag2219
ag2858
ag2757
ag2638
ag90
ag1581
ag1637
ag1560
ag2962
ag730
ag2169
ag1265
ag1384
ag2459
ag1478
ag77
ag3083
ag2296
ag890
ag105
ag940
ag330
ag2753
ag1645
ag2797
ag3539
ag63
ag3086
ag2870
ag1744
ag1902
ag447
ag2464
ag3172
ag2986
ag2466
ag3131
ag483
ag3222
ag568
ag3079
ag481
ag2035
ag3187
ag2098
ag2157
ag3003
ag1270
ag3293
ag401
ag2078
ag1398
ag1910
ag627
ag1028
ag512
ag3649
ag2955
ag2787
ag1239
ag2149
ag2231
ag2965
ag2441
ag3378
ag1011
ag24
ag2480
ag624
ag2410
ag1245
ag2647
ag124
ag3385
ag381
ag3205
ag1549
ag1551
ag3615
ag3145
ag185
ag131
ag3328
ag3311
ag983
ag923
ag1255
ag2996
ag75
ag2945
ag1043
ag1306
ag690
ag2400
ag839
ag531
ag2884
ag3072
ag2942
ag935
ag2779
ag2761
ag1900
ag528
ag1941
ag2343
ag3534
ag3085
ag1561
ag1672
ag2711
ag1276
ag2025
ag2582
ag3497
ag1949
ag961
ag3600
ag2845
ag3465
ag1885
ag659
ag2569
ag2958
ag1415
ag28
ag3521
ag1253
ag985
ag3588
ag48
ag1716
ag1958
ag838
ag578
ag2162
ag3117
ag3146
ag1472
ag882
ag570
ag1195
ag1297
ag3419
ag1263
ag3096
ag311
ag1112
ag215
ag1084
ag1722
ag2788
ag1217
ag1511
ag1453
ag59
ag1615
ag2155
ag2271
ag1566
ag633
ag1187
ag288
ag1761
ag1832
ag486
ag1800
ag406
ag641
ag1510
ag1238
ag3681
ag2308
ag3081
ag1742
ag1781
ag1168
ag1714
ag2350
ag3557
ag22
ag83
ag1450
ag1100
ag3429
ag3329
ag676
ag3244
ag389
ag3170
ag1969
ag3142
ag1186
ag394
ag2674
ag793
ag334
ag2208
ag2366
ag3690
ag3423
ag3753
ag2409
ag1354
ag504
ag1582
ag638
ag441
ag2505
ag2693
ag61
ag2526
ag814
ag2021
ag1266
ag2518
ag969
ag3374
ag773
ag1707
ag43
ag3012
ag2721
ag1798
ag3084
ag1784
ag2283
ag2532
ag2599
ag30
ag2502
ag345
asbsS'max_document_length'
p3768
I769
sS'_tokenizer'
p3769
ctensorflow.contrib.learn.python.learn.preprocessing.text
tokenizer
p3770
sS'min_frequency'
p3771
I0
sb.